
_test_10:     file format elf32-i386


Disassembly of section .text:

00000000 <main>:
}


int
main(int argc, char *argv[])
{
   0:	8d 4c 24 04          	lea    0x4(%esp),%ecx
   4:	83 e4 f0             	and    $0xfffffff0,%esp
   7:	ff 71 fc             	push   -0x4(%ecx)
   a:	55                   	push   %ebp
   b:	89 e5                	mov    %esp,%ebp
   d:	57                   	push   %edi
   e:	56                   	push   %esi
   f:	53                   	push   %ebx
  10:	51                   	push   %ecx
  11:	81 ec 20 05 00 00    	sub    $0x520,%esp
   struct pstat st;
   int count = 0;
   int i = 0;
   int pid[NPROC];
   printf(1,"Spinning...\n");
  17:	68 68 08 00 00       	push   $0x868
  1c:	6a 01                	push   $0x1
  1e:	e8 1d 05 00 00       	call   540 <printf>
   while(i < PROC)
  23:	8d 85 e8 fa ff ff    	lea    -0x518(%ebp),%eax
  29:	83 c4 10             	add    $0x10,%esp
  2c:	89 85 e4 fa ff ff    	mov    %eax,-0x51c(%ebp)
   printf(1,"Spinning...\n");
  32:	89 c3                	mov    %eax,%ebx
   {
      pid[i] = fork();
  34:	e8 82 03 00 00       	call   3bb <fork>
  39:	89 03                	mov    %eax,(%ebx)
	    if(pid[i] == 0)
  3b:	85 c0                	test   %eax,%eax
  3d:	0f 84 ed 00 00 00    	je     130 <main+0x130>
   while(i < PROC)
  43:	83 c3 04             	add    $0x4,%ebx
  46:	8d 85 fc fa ff ff    	lea    -0x504(%ebp),%eax
  4c:	39 c3                	cmp    %eax,%ebx
  4e:	75 e4                	jne    34 <main+0x34>
		    spin();
		    exit();
      }
	  i++;
   }
   sleep(500);
  50:	83 ec 0c             	sub    $0xc,%esp
   //spin();
   if(getpinfo(&st) == 0)
  53:	8d b5 e8 fb ff ff    	lea    -0x418(%ebp),%esi
   sleep(500);
  59:	68 f4 01 00 00       	push   $0x1f4
  5e:	e8 f0 03 00 00       	call   453 <sleep>
   if(getpinfo(&st) == 0)
  63:	89 34 24             	mov    %esi,(%esp)
  66:	e8 00 04 00 00       	call   46b <getpinfo>
  6b:	83 c4 10             	add    $0x10,%esp
  6e:	89 c3                	mov    %eax,%ebx
  70:	85 c0                	test   %eax,%eax
  72:	0f 85 bd 00 00 00    	jne    135 <main+0x135>
   {
    printf(1, "XV6_SCHEDULER\t FAILED\n");
    exit();
   }

   printf(1, "\n**** PInfo ****\n");
  78:	50                   	push   %eax
  79:	8d bd e8 fc ff ff    	lea    -0x318(%ebp),%edi
  7f:	50                   	push   %eax
  80:	68 8c 08 00 00       	push   $0x88c
  85:	6a 01                	push   $0x1
  87:	e8 b4 04 00 00       	call   540 <printf>
   for(i = 0; i < NPROC; i++) {
  8c:	83 c4 10             	add    $0x10,%esp
  8f:	eb 0e                	jmp    9f <main+0x9f>
  91:	8d b4 26 00 00 00 00 	lea    0x0(%esi,%eiz,1),%esi
  98:	83 c6 04             	add    $0x4,%esi
  9b:	39 fe                	cmp    %edi,%esi
  9d:	74 39                	je     d8 <main+0xd8>
      if (st.inuse[i]) {
  9f:	8b 06                	mov    (%esi),%eax
  a1:	85 c0                	test   %eax,%eax
  a3:	74 f3                	je     98 <main+0x98>
	       count++;
         printf(1, "pid: %d tickets: %d ticks: %d\n", st.pid[i], st.tickets[i], st.ticks[i]);
  a5:	83 ec 0c             	sub    $0xc,%esp
  a8:	ff b6 00 03 00 00    	push   0x300(%esi)
   for(i = 0; i < NPROC; i++) {
  ae:	83 c6 04             	add    $0x4,%esi
	       count++;
  b1:	83 c3 01             	add    $0x1,%ebx
         printf(1, "pid: %d tickets: %d ticks: %d\n", st.pid[i], st.tickets[i], st.ticks[i]);
  b4:	ff b6 fc 00 00 00    	push   0xfc(%esi)
  ba:	ff b6 fc 01 00 00    	push   0x1fc(%esi)
  c0:	68 b8 08 00 00       	push   $0x8b8
  c5:	6a 01                	push   $0x1
  c7:	e8 74 04 00 00       	call   540 <printf>
  cc:	83 c4 20             	add    $0x20,%esp
   for(i = 0; i < NPROC; i++) {
  cf:	39 fe                	cmp    %edi,%esi
  d1:	75 cc                	jne    9f <main+0x9f>
  d3:	8d 74 26 00          	lea    0x0(%esi,%eiz,1),%esi
  d7:	90                   	nop
      }
   }
   for(i = 0; i < PROC; i++)
   {
	    kill(pid[i]);
  d8:	8b bd e4 fa ff ff    	mov    -0x51c(%ebp),%edi
  de:	83 ec 0c             	sub    $0xc,%esp
  e1:	ff 37                	push   (%edi)
  e3:	e8 0b 03 00 00       	call   3f3 <kill>
   for(i = 0; i < PROC; i++)
  e8:	89 f8                	mov    %edi,%eax
  ea:	8d 95 fc fa ff ff    	lea    -0x504(%ebp),%edx
  f0:	83 c4 10             	add    $0x10,%esp
  f3:	83 c0 04             	add    $0x4,%eax
  f6:	89 85 e4 fa ff ff    	mov    %eax,-0x51c(%ebp)
  fc:	39 d0                	cmp    %edx,%eax
  fe:	75 d8                	jne    d8 <main+0xd8>
   }
   while (wait() > 0);
 100:	e8 c6 02 00 00       	call   3cb <wait>
 105:	85 c0                	test   %eax,%eax
 107:	7f f7                	jg     100 <main+0x100>
   printf(1,"Number of processes in use %d\n", count);
 109:	51                   	push   %ecx
 10a:	53                   	push   %ebx
 10b:	68 d8 08 00 00       	push   $0x8d8
 110:	6a 01                	push   $0x1
 112:	e8 29 04 00 00       	call   540 <printf>
   
   if(count == 8)
 117:	83 c4 10             	add    $0x10,%esp
 11a:	83 fb 08             	cmp    $0x8,%ebx
 11d:	74 29                	je     148 <main+0x148>
   {
    printf(1, "XV6_SCHEDULER\t SUCCESS\n");
   }
   else
   {
    printf(1, "XV6_SCHEDULER\t FAILED\n");
 11f:	50                   	push   %eax
 120:	50                   	push   %eax
 121:	68 75 08 00 00       	push   $0x875
 126:	6a 01                	push   $0x1
 128:	e8 13 04 00 00       	call   540 <printf>
 12d:	83 c4 10             	add    $0x10,%esp
		    exit();
 130:	e8 8e 02 00 00       	call   3c3 <exit>
    printf(1, "XV6_SCHEDULER\t FAILED\n");
 135:	50                   	push   %eax
 136:	50                   	push   %eax
 137:	68 75 08 00 00       	push   $0x875
 13c:	6a 01                	push   $0x1
 13e:	e8 fd 03 00 00       	call   540 <printf>
    exit();
 143:	e8 7b 02 00 00       	call   3c3 <exit>
    printf(1, "XV6_SCHEDULER\t SUCCESS\n");
 148:	52                   	push   %edx
 149:	52                   	push   %edx
 14a:	68 9e 08 00 00       	push   $0x89e
 14f:	6a 01                	push   $0x1
 151:	e8 ea 03 00 00       	call   540 <printf>
 156:	83 c4 10             	add    $0x10,%esp
 159:	eb d5                	jmp    130 <main+0x130>
 15b:	66 90                	xchg   %ax,%ax
 15d:	66 90                	xchg   %ax,%ax
 15f:	90                   	nop

00000160 <spin>:
}
 160:	c3                   	ret    
 161:	66 90                	xchg   %ax,%ax
 163:	66 90                	xchg   %ax,%ax
 165:	66 90                	xchg   %ax,%ax
 167:	66 90                	xchg   %ax,%ax
 169:	66 90                	xchg   %ax,%ax
 16b:	66 90                	xchg   %ax,%ax
 16d:	66 90                	xchg   %ax,%ax
 16f:	90                   	nop

00000170 <strcpy>:
 170:	55                   	push   %ebp
 171:	31 c0                	xor    %eax,%eax
 173:	89 e5                	mov    %esp,%ebp
 175:	53                   	push   %ebx
 176:	8b 4d 08             	mov    0x8(%ebp),%ecx
 179:	8b 5d 0c             	mov    0xc(%ebp),%ebx
 17c:	8d 74 26 00          	lea    0x0(%esi,%eiz,1),%esi
 180:	0f b6 14 03          	movzbl (%ebx,%eax,1),%edx
 184:	88 14 01             	mov    %dl,(%ecx,%eax,1)
 187:	83 c0 01             	add    $0x1,%eax
 18a:	84 d2                	test   %dl,%dl
 18c:	75 f2                	jne    180 <strcpy+0x10>
 18e:	8b 5d fc             	mov    -0x4(%ebp),%ebx
 191:	89 c8                	mov    %ecx,%eax
 193:	c9                   	leave  
 194:	c3                   	ret    
 195:	8d b4 26 00 00 00 00 	lea    0x0(%esi,%eiz,1),%esi
 19c:	8d 74 26 00          	lea    0x0(%esi,%eiz,1),%esi

000001a0 <strcmp>:
 1a0:	55                   	push   %ebp
 1a1:	89 e5                	mov    %esp,%ebp
 1a3:	53                   	push   %ebx
 1a4:	8b 55 08             	mov    0x8(%ebp),%edx
 1a7:	8b 4d 0c             	mov    0xc(%ebp),%ecx
 1aa:	0f b6 02             	movzbl (%edx),%eax
 1ad:	84 c0                	test   %al,%al
 1af:	75 17                	jne    1c8 <strcmp+0x28>
 1b1:	eb 3a                	jmp    1ed <strcmp+0x4d>
 1b3:	8d 74 26 00          	lea    0x0(%esi,%eiz,1),%esi
 1b7:	90                   	nop
 1b8:	0f b6 42 01          	movzbl 0x1(%edx),%eax
 1bc:	83 c2 01             	add    $0x1,%edx
 1bf:	8d 59 01             	lea    0x1(%ecx),%ebx
 1c2:	84 c0                	test   %al,%al
 1c4:	74 1a                	je     1e0 <strcmp+0x40>
 1c6:	89 d9                	mov    %ebx,%ecx
 1c8:	0f b6 19             	movzbl (%ecx),%ebx
 1cb:	38 c3                	cmp    %al,%bl
 1cd:	74 e9                	je     1b8 <strcmp+0x18>
 1cf:	29 d8                	sub    %ebx,%eax
 1d1:	8b 5d fc             	mov    -0x4(%ebp),%ebx
 1d4:	c9                   	leave  
 1d5:	c3                   	ret    
 1d6:	8d b4 26 00 00 00 00 	lea    0x0(%esi,%eiz,1),%esi
 1dd:	8d 76 00             	lea    0x0(%esi),%esi
 1e0:	0f b6 59 01          	movzbl 0x1(%ecx),%ebx
 1e4:	31 c0                	xor    %eax,%eax
 1e6:	29 d8                	sub    %ebx,%eax
 1e8:	8b 5d fc             	mov    -0x4(%ebp),%ebx
 1eb:	c9                   	leave  
 1ec:	c3                   	ret    
 1ed:	0f b6 19             	movzbl (%ecx),%ebx
 1f0:	31 c0                	xor    %eax,%eax
 1f2:	eb db                	jmp    1cf <strcmp+0x2f>
 1f4:	8d b4 26 00 00 00 00 	lea    0x0(%esi,%eiz,1),%esi
 1fb:	8d 74 26 00          	lea    0x0(%esi,%eiz,1),%esi
 1ff:	90                   	nop

00000200 <strlen>:
 200:	55                   	push   %ebp
 201:	89 e5                	mov    %esp,%ebp
 203:	8b 55 08             	mov    0x8(%ebp),%edx
 206:	80 3a 00             	cmpb   $0x0,(%edx)
 209:	74 15                	je     220 <strlen+0x20>
 20b:	31 c0                	xor    %eax,%eax
 20d:	8d 76 00             	lea    0x0(%esi),%esi
 210:	83 c0 01             	add    $0x1,%eax
 213:	80 3c 02 00          	cmpb   $0x0,(%edx,%eax,1)
 217:	89 c1                	mov    %eax,%ecx
 219:	75 f5                	jne    210 <strlen+0x10>
 21b:	89 c8                	mov    %ecx,%eax
 21d:	5d                   	pop    %ebp
 21e:	c3                   	ret    
 21f:	90                   	nop
 220:	31 c9                	xor    %ecx,%ecx
 222:	5d                   	pop    %ebp
 223:	89 c8                	mov    %ecx,%eax
 225:	c3                   	ret    
 226:	8d b4 26 00 00 00 00 	lea    0x0(%esi,%eiz,1),%esi
 22d:	8d 76 00             	lea    0x0(%esi),%esi

00000230 <memset>:
 230:	55                   	push   %ebp
 231:	89 e5                	mov    %esp,%ebp
 233:	57                   	push   %edi
 234:	8b 55 08             	mov    0x8(%ebp),%edx
 237:	8b 4d 10             	mov    0x10(%ebp),%ecx
 23a:	8b 45 0c             	mov    0xc(%ebp),%eax
 23d:	89 d7                	mov    %edx,%edi
 23f:	fc                   	cld    
 240:	f3 aa                	rep stos %al,%es:(%edi)
 242:	8b 7d fc             	mov    -0x4(%ebp),%edi
 245:	89 d0                	mov    %edx,%eax
 247:	c9                   	leave  
 248:	c3                   	ret    
 249:	8d b4 26 00 00 00 00 	lea    0x0(%esi,%eiz,1),%esi

00000250 <strchr>:
 250:	55                   	push   %ebp
 251:	89 e5                	mov    %esp,%ebp
 253:	8b 45 08             	mov    0x8(%ebp),%eax
 256:	0f b6 4d 0c          	movzbl 0xc(%ebp),%ecx
 25a:	0f b6 10             	movzbl (%eax),%edx
 25d:	84 d2                	test   %dl,%dl
 25f:	75 12                	jne    273 <strchr+0x23>
 261:	eb 1d                	jmp    280 <strchr+0x30>
 263:	8d 74 26 00          	lea    0x0(%esi,%eiz,1),%esi
 267:	90                   	nop
 268:	0f b6 50 01          	movzbl 0x1(%eax),%edx
 26c:	83 c0 01             	add    $0x1,%eax
 26f:	84 d2                	test   %dl,%dl
 271:	74 0d                	je     280 <strchr+0x30>
 273:	38 d1                	cmp    %dl,%cl
 275:	75 f1                	jne    268 <strchr+0x18>
 277:	5d                   	pop    %ebp
 278:	c3                   	ret    
 279:	8d b4 26 00 00 00 00 	lea    0x0(%esi,%eiz,1),%esi
 280:	31 c0                	xor    %eax,%eax
 282:	5d                   	pop    %ebp
 283:	c3                   	ret    
 284:	8d b4 26 00 00 00 00 	lea    0x0(%esi,%eiz,1),%esi
 28b:	8d 74 26 00          	lea    0x0(%esi,%eiz,1),%esi
 28f:	90                   	nop

00000290 <gets>:
 290:	55                   	push   %ebp
 291:	89 e5                	mov    %esp,%ebp
 293:	57                   	push   %edi
 294:	56                   	push   %esi
 295:	8d 7d e7             	lea    -0x19(%ebp),%edi
 298:	53                   	push   %ebx
 299:	31 db                	xor    %ebx,%ebx
 29b:	83 ec 1c             	sub    $0x1c,%esp
 29e:	eb 27                	jmp    2c7 <gets+0x37>
 2a0:	83 ec 04             	sub    $0x4,%esp
 2a3:	6a 01                	push   $0x1
 2a5:	57                   	push   %edi
 2a6:	6a 00                	push   $0x0
 2a8:	e8 2e 01 00 00       	call   3db <read>
 2ad:	83 c4 10             	add    $0x10,%esp
 2b0:	85 c0                	test   %eax,%eax
 2b2:	7e 1d                	jle    2d1 <gets+0x41>
 2b4:	0f b6 45 e7          	movzbl -0x19(%ebp),%eax
 2b8:	8b 55 08             	mov    0x8(%ebp),%edx
 2bb:	88 44 1a ff          	mov    %al,-0x1(%edx,%ebx,1)
 2bf:	3c 0a                	cmp    $0xa,%al
 2c1:	74 1d                	je     2e0 <gets+0x50>
 2c3:	3c 0d                	cmp    $0xd,%al
 2c5:	74 19                	je     2e0 <gets+0x50>
 2c7:	89 de                	mov    %ebx,%esi
 2c9:	83 c3 01             	add    $0x1,%ebx
 2cc:	3b 5d 0c             	cmp    0xc(%ebp),%ebx
 2cf:	7c cf                	jl     2a0 <gets+0x10>
 2d1:	8b 45 08             	mov    0x8(%ebp),%eax
 2d4:	c6 04 30 00          	movb   $0x0,(%eax,%esi,1)
 2d8:	8d 65 f4             	lea    -0xc(%ebp),%esp
 2db:	5b                   	pop    %ebx
 2dc:	5e                   	pop    %esi
 2dd:	5f                   	pop    %edi
 2de:	5d                   	pop    %ebp
 2df:	c3                   	ret    
 2e0:	8b 45 08             	mov    0x8(%ebp),%eax
 2e3:	89 de                	mov    %ebx,%esi
 2e5:	c6 04 30 00          	movb   $0x0,(%eax,%esi,1)
 2e9:	8d 65 f4             	lea    -0xc(%ebp),%esp
 2ec:	5b                   	pop    %ebx
 2ed:	5e                   	pop    %esi
 2ee:	5f                   	pop    %edi
 2ef:	5d                   	pop    %ebp
 2f0:	c3                   	ret    
 2f1:	8d b4 26 00 00 00 00 	lea    0x0(%esi,%eiz,1),%esi
 2f8:	8d b4 26 00 00 00 00 	lea    0x0(%esi,%eiz,1),%esi
 2ff:	90                   	nop

00000300 <stat>:
 300:	55                   	push   %ebp
 301:	89 e5                	mov    %esp,%ebp
 303:	56                   	push   %esi
 304:	53                   	push   %ebx
 305:	83 ec 08             	sub    $0x8,%esp
 308:	6a 00                	push   $0x0
 30a:	ff 75 08             	push   0x8(%ebp)
 30d:	e8 f1 00 00 00       	call   403 <open>
 312:	83 c4 10             	add    $0x10,%esp
 315:	85 c0                	test   %eax,%eax
 317:	78 27                	js     340 <stat+0x40>
 319:	83 ec 08             	sub    $0x8,%esp
 31c:	ff 75 0c             	push   0xc(%ebp)
 31f:	89 c3                	mov    %eax,%ebx
 321:	50                   	push   %eax
 322:	e8 f4 00 00 00       	call   41b <fstat>
 327:	89 1c 24             	mov    %ebx,(%esp)
 32a:	89 c6                	mov    %eax,%esi
 32c:	e8 ba 00 00 00       	call   3eb <close>
 331:	83 c4 10             	add    $0x10,%esp
 334:	8d 65 f8             	lea    -0x8(%ebp),%esp
 337:	89 f0                	mov    %esi,%eax
 339:	5b                   	pop    %ebx
 33a:	5e                   	pop    %esi
 33b:	5d                   	pop    %ebp
 33c:	c3                   	ret    
 33d:	8d 76 00             	lea    0x0(%esi),%esi
 340:	be ff ff ff ff       	mov    $0xffffffff,%esi
 345:	eb ed                	jmp    334 <stat+0x34>
 347:	8d b4 26 00 00 00 00 	lea    0x0(%esi,%eiz,1),%esi
 34e:	66 90                	xchg   %ax,%ax

00000350 <atoi>:
 350:	55                   	push   %ebp
 351:	89 e5                	mov    %esp,%ebp
 353:	53                   	push   %ebx
 354:	8b 55 08             	mov    0x8(%ebp),%edx
 357:	0f be 02             	movsbl (%edx),%eax
 35a:	8d 48 d0             	lea    -0x30(%eax),%ecx
 35d:	80 f9 09             	cmp    $0x9,%cl
 360:	b9 00 00 00 00       	mov    $0x0,%ecx
 365:	77 1e                	ja     385 <atoi+0x35>
 367:	8d b4 26 00 00 00 00 	lea    0x0(%esi,%eiz,1),%esi
 36e:	66 90                	xchg   %ax,%ax
 370:	83 c2 01             	add    $0x1,%edx
 373:	8d 0c 89             	lea    (%ecx,%ecx,4),%ecx
 376:	8d 4c 48 d0          	lea    -0x30(%eax,%ecx,2),%ecx
 37a:	0f be 02             	movsbl (%edx),%eax
 37d:	8d 58 d0             	lea    -0x30(%eax),%ebx
 380:	80 fb 09             	cmp    $0x9,%bl
 383:	76 eb                	jbe    370 <atoi+0x20>
 385:	8b 5d fc             	mov    -0x4(%ebp),%ebx
 388:	89 c8                	mov    %ecx,%eax
 38a:	c9                   	leave  
 38b:	c3                   	ret    
 38c:	8d 74 26 00          	lea    0x0(%esi,%eiz,1),%esi

00000390 <memmove>:
 390:	55                   	push   %ebp
 391:	89 e5                	mov    %esp,%ebp
 393:	57                   	push   %edi
 394:	8b 45 10             	mov    0x10(%ebp),%eax
 397:	8b 55 08             	mov    0x8(%ebp),%edx
 39a:	56                   	push   %esi
 39b:	8b 75 0c             	mov    0xc(%ebp),%esi
 39e:	85 c0                	test   %eax,%eax
 3a0:	7e 13                	jle    3b5 <memmove+0x25>
 3a2:	01 d0                	add    %edx,%eax
 3a4:	89 d7                	mov    %edx,%edi
 3a6:	8d b4 26 00 00 00 00 	lea    0x0(%esi,%eiz,1),%esi
 3ad:	8d 76 00             	lea    0x0(%esi),%esi
 3b0:	a4                   	movsb  %ds:(%esi),%es:(%edi)
 3b1:	39 f8                	cmp    %edi,%eax
 3b3:	75 fb                	jne    3b0 <memmove+0x20>
 3b5:	5e                   	pop    %esi
 3b6:	89 d0                	mov    %edx,%eax
 3b8:	5f                   	pop    %edi
 3b9:	5d                   	pop    %ebp
 3ba:	c3                   	ret    

000003bb <fork>:
 3bb:	b8 01 00 00 00       	mov    $0x1,%eax
 3c0:	cd 40                	int    $0x40
 3c2:	c3                   	ret    

000003c3 <exit>:
 3c3:	b8 02 00 00 00       	mov    $0x2,%eax
 3c8:	cd 40                	int    $0x40
 3ca:	c3                   	ret    

000003cb <wait>:
 3cb:	b8 03 00 00 00       	mov    $0x3,%eax
 3d0:	cd 40                	int    $0x40
 3d2:	c3                   	ret    

000003d3 <pipe>:
 3d3:	b8 04 00 00 00       	mov    $0x4,%eax
 3d8:	cd 40                	int    $0x40
 3da:	c3                   	ret    

000003db <read>:
 3db:	b8 05 00 00 00       	mov    $0x5,%eax
 3e0:	cd 40                	int    $0x40
 3e2:	c3                   	ret    

000003e3 <write>:
 3e3:	b8 10 00 00 00       	mov    $0x10,%eax
 3e8:	cd 40                	int    $0x40
 3ea:	c3                   	ret    

000003eb <close>:
 3eb:	b8 15 00 00 00       	mov    $0x15,%eax
 3f0:	cd 40                	int    $0x40
 3f2:	c3                   	ret    

000003f3 <kill>:
 3f3:	b8 06 00 00 00       	mov    $0x6,%eax
 3f8:	cd 40                	int    $0x40
 3fa:	c3                   	ret    

000003fb <exec>:
 3fb:	b8 07 00 00 00       	mov    $0x7,%eax
 400:	cd 40                	int    $0x40
 402:	c3                   	ret    

00000403 <open>:
 403:	b8 0f 00 00 00       	mov    $0xf,%eax
 408:	cd 40                	int    $0x40
 40a:	c3                   	ret    

0000040b <mknod>:
 40b:	b8 11 00 00 00       	mov    $0x11,%eax
 410:	cd 40                	int    $0x40
 412:	c3                   	ret    

00000413 <unlink>:
 413:	b8 12 00 00 00       	mov    $0x12,%eax
 418:	cd 40                	int    $0x40
 41a:	c3                   	ret    

0000041b <fstat>:
 41b:	b8 08 00 00 00       	mov    $0x8,%eax
 420:	cd 40                	int    $0x40
 422:	c3                   	ret    

00000423 <link>:
 423:	b8 13 00 00 00       	mov    $0x13,%eax
 428:	cd 40                	int    $0x40
 42a:	c3                   	ret    

0000042b <mkdir>:
 42b:	b8 14 00 00 00       	mov    $0x14,%eax
 430:	cd 40                	int    $0x40
 432:	c3                   	ret    

00000433 <chdir>:
 433:	b8 09 00 00 00       	mov    $0x9,%eax
 438:	cd 40                	int    $0x40
 43a:	c3                   	ret    

0000043b <dup>:
 43b:	b8 0a 00 00 00       	mov    $0xa,%eax
 440:	cd 40                	int    $0x40
 442:	c3                   	ret    

00000443 <getpid>:
 443:	b8 0b 00 00 00       	mov    $0xb,%eax
 448:	cd 40                	int    $0x40
 44a:	c3                   	ret    

0000044b <sbrk>:
 44b:	b8 0c 00 00 00       	mov    $0xc,%eax
 450:	cd 40                	int    $0x40
 452:	c3                   	ret    

00000453 <sleep>:
 453:	b8 0d 00 00 00       	mov    $0xd,%eax
 458:	cd 40                	int    $0x40
 45a:	c3                   	ret    

0000045b <uptime>:
 45b:	b8 0e 00 00 00       	mov    $0xe,%eax
 460:	cd 40                	int    $0x40
 462:	c3                   	ret    

00000463 <settickets>:
 463:	b8 16 00 00 00       	mov    $0x16,%eax
 468:	cd 40                	int    $0x40
 46a:	c3                   	ret    

0000046b <getpinfo>:
 46b:	b8 17 00 00 00       	mov    $0x17,%eax
 470:	cd 40                	int    $0x40
 472:	c3                   	ret    

00000473 <mprotect>:
 473:	b8 18 00 00 00       	mov    $0x18,%eax
 478:	cd 40                	int    $0x40
 47a:	c3                   	ret    

0000047b <munprotect>:
 47b:	b8 19 00 00 00       	mov    $0x19,%eax
 480:	cd 40                	int    $0x40
 482:	c3                   	ret    
 483:	66 90                	xchg   %ax,%ax
 485:	66 90                	xchg   %ax,%ax
 487:	66 90                	xchg   %ax,%ax
 489:	66 90                	xchg   %ax,%ax
 48b:	66 90                	xchg   %ax,%ax
 48d:	66 90                	xchg   %ax,%ax
 48f:	90                   	nop

00000490 <printint>:
 490:	55                   	push   %ebp
 491:	89 e5                	mov    %esp,%ebp
 493:	57                   	push   %edi
 494:	56                   	push   %esi
 495:	53                   	push   %ebx
 496:	83 ec 3c             	sub    $0x3c,%esp
 499:	89 4d c4             	mov    %ecx,-0x3c(%ebp)
 49c:	89 d1                	mov    %edx,%ecx
 49e:	89 45 b8             	mov    %eax,-0x48(%ebp)
 4a1:	85 d2                	test   %edx,%edx
 4a3:	0f 89 7f 00 00 00    	jns    528 <printint+0x98>
 4a9:	f6 45 08 01          	testb  $0x1,0x8(%ebp)
 4ad:	74 79                	je     528 <printint+0x98>
 4af:	c7 45 bc 01 00 00 00 	movl   $0x1,-0x44(%ebp)
 4b6:	f7 d9                	neg    %ecx
 4b8:	31 db                	xor    %ebx,%ebx
 4ba:	8d 75 d7             	lea    -0x29(%ebp),%esi
 4bd:	8d 76 00             	lea    0x0(%esi),%esi
 4c0:	89 c8                	mov    %ecx,%eax
 4c2:	31 d2                	xor    %edx,%edx
 4c4:	89 cf                	mov    %ecx,%edi
 4c6:	f7 75 c4             	divl   -0x3c(%ebp)
 4c9:	0f b6 92 58 09 00 00 	movzbl 0x958(%edx),%edx
 4d0:	89 45 c0             	mov    %eax,-0x40(%ebp)
 4d3:	89 d8                	mov    %ebx,%eax
 4d5:	8d 5b 01             	lea    0x1(%ebx),%ebx
 4d8:	8b 4d c0             	mov    -0x40(%ebp),%ecx
 4db:	88 14 1e             	mov    %dl,(%esi,%ebx,1)
 4de:	39 7d c4             	cmp    %edi,-0x3c(%ebp)
 4e1:	76 dd                	jbe    4c0 <printint+0x30>
 4e3:	8b 4d bc             	mov    -0x44(%ebp),%ecx
 4e6:	85 c9                	test   %ecx,%ecx
 4e8:	74 0c                	je     4f6 <printint+0x66>
 4ea:	c6 44 1d d8 2d       	movb   $0x2d,-0x28(%ebp,%ebx,1)
 4ef:	89 d8                	mov    %ebx,%eax
 4f1:	ba 2d 00 00 00       	mov    $0x2d,%edx
 4f6:	8b 7d b8             	mov    -0x48(%ebp),%edi
 4f9:	8d 5c 05 d7          	lea    -0x29(%ebp,%eax,1),%ebx
 4fd:	eb 07                	jmp    506 <printint+0x76>
 4ff:	90                   	nop
 500:	0f b6 13             	movzbl (%ebx),%edx
 503:	83 eb 01             	sub    $0x1,%ebx
 506:	83 ec 04             	sub    $0x4,%esp
 509:	88 55 d7             	mov    %dl,-0x29(%ebp)
 50c:	6a 01                	push   $0x1
 50e:	56                   	push   %esi
 50f:	57                   	push   %edi
 510:	e8 ce fe ff ff       	call   3e3 <write>
 515:	83 c4 10             	add    $0x10,%esp
 518:	39 de                	cmp    %ebx,%esi
 51a:	75 e4                	jne    500 <printint+0x70>
 51c:	8d 65 f4             	lea    -0xc(%ebp),%esp
 51f:	5b                   	pop    %ebx
 520:	5e                   	pop    %esi
 521:	5f                   	pop    %edi
 522:	5d                   	pop    %ebp
 523:	c3                   	ret    
 524:	8d 74 26 00          	lea    0x0(%esi,%eiz,1),%esi
 528:	c7 45 bc 00 00 00 00 	movl   $0x0,-0x44(%ebp)
 52f:	eb 87                	jmp    4b8 <printint+0x28>
 531:	8d b4 26 00 00 00 00 	lea    0x0(%esi,%eiz,1),%esi
 538:	8d b4 26 00 00 00 00 	lea    0x0(%esi,%eiz,1),%esi
 53f:	90                   	nop

00000540 <printf>:
 540:	55                   	push   %ebp
 541:	89 e5                	mov    %esp,%ebp
 543:	57                   	push   %edi
 544:	56                   	push   %esi
 545:	53                   	push   %ebx
 546:	83 ec 2c             	sub    $0x2c,%esp
 549:	8b 5d 0c             	mov    0xc(%ebp),%ebx
 54c:	8b 75 08             	mov    0x8(%ebp),%esi
 54f:	0f b6 13             	movzbl (%ebx),%edx
 552:	84 d2                	test   %dl,%dl
 554:	74 6a                	je     5c0 <printf+0x80>
 556:	8d 45 10             	lea    0x10(%ebp),%eax
 559:	83 c3 01             	add    $0x1,%ebx
 55c:	8d 7d e7             	lea    -0x19(%ebp),%edi
 55f:	31 c9                	xor    %ecx,%ecx
 561:	89 45 d0             	mov    %eax,-0x30(%ebp)
 564:	eb 36                	jmp    59c <printf+0x5c>
 566:	8d b4 26 00 00 00 00 	lea    0x0(%esi,%eiz,1),%esi
 56d:	8d 76 00             	lea    0x0(%esi),%esi
 570:	89 4d d4             	mov    %ecx,-0x2c(%ebp)
 573:	b9 25 00 00 00       	mov    $0x25,%ecx
 578:	83 f8 25             	cmp    $0x25,%eax
 57b:	74 15                	je     592 <printf+0x52>
 57d:	83 ec 04             	sub    $0x4,%esp
 580:	88 55 e7             	mov    %dl,-0x19(%ebp)
 583:	6a 01                	push   $0x1
 585:	57                   	push   %edi
 586:	56                   	push   %esi
 587:	e8 57 fe ff ff       	call   3e3 <write>
 58c:	8b 4d d4             	mov    -0x2c(%ebp),%ecx
 58f:	83 c4 10             	add    $0x10,%esp
 592:	0f b6 13             	movzbl (%ebx),%edx
 595:	83 c3 01             	add    $0x1,%ebx
 598:	84 d2                	test   %dl,%dl
 59a:	74 24                	je     5c0 <printf+0x80>
 59c:	0f b6 c2             	movzbl %dl,%eax
 59f:	85 c9                	test   %ecx,%ecx
 5a1:	74 cd                	je     570 <printf+0x30>
 5a3:	83 f9 25             	cmp    $0x25,%ecx
 5a6:	75 ea                	jne    592 <printf+0x52>
 5a8:	83 f8 25             	cmp    $0x25,%eax
 5ab:	0f 84 07 01 00 00    	je     6b8 <printf+0x178>
 5b1:	83 e8 63             	sub    $0x63,%eax
 5b4:	83 f8 15             	cmp    $0x15,%eax
 5b7:	77 17                	ja     5d0 <printf+0x90>
 5b9:	ff 24 85 00 09 00 00 	jmp    *0x900(,%eax,4)
 5c0:	8d 65 f4             	lea    -0xc(%ebp),%esp
 5c3:	5b                   	pop    %ebx
 5c4:	5e                   	pop    %esi
 5c5:	5f                   	pop    %edi
 5c6:	5d                   	pop    %ebp
 5c7:	c3                   	ret    
 5c8:	8d b4 26 00 00 00 00 	lea    0x0(%esi,%eiz,1),%esi
 5cf:	90                   	nop
 5d0:	83 ec 04             	sub    $0x4,%esp
 5d3:	88 55 d4             	mov    %dl,-0x2c(%ebp)
 5d6:	6a 01                	push   $0x1
 5d8:	57                   	push   %edi
 5d9:	56                   	push   %esi
 5da:	c6 45 e7 25          	movb   $0x25,-0x19(%ebp)
 5de:	e8 00 fe ff ff       	call   3e3 <write>
 5e3:	0f b6 55 d4          	movzbl -0x2c(%ebp),%edx
 5e7:	83 c4 0c             	add    $0xc,%esp
 5ea:	88 55 e7             	mov    %dl,-0x19(%ebp)
 5ed:	6a 01                	push   $0x1
 5ef:	57                   	push   %edi
 5f0:	56                   	push   %esi
 5f1:	e8 ed fd ff ff       	call   3e3 <write>
 5f6:	83 c4 10             	add    $0x10,%esp
 5f9:	31 c9                	xor    %ecx,%ecx
 5fb:	eb 95                	jmp    592 <printf+0x52>
 5fd:	8d 76 00             	lea    0x0(%esi),%esi
 600:	83 ec 0c             	sub    $0xc,%esp
 603:	b9 10 00 00 00       	mov    $0x10,%ecx
 608:	6a 00                	push   $0x0
 60a:	8b 45 d0             	mov    -0x30(%ebp),%eax
 60d:	8b 10                	mov    (%eax),%edx
 60f:	89 f0                	mov    %esi,%eax
 611:	e8 7a fe ff ff       	call   490 <printint>
 616:	83 45 d0 04          	addl   $0x4,-0x30(%ebp)
 61a:	83 c4 10             	add    $0x10,%esp
 61d:	31 c9                	xor    %ecx,%ecx
 61f:	e9 6e ff ff ff       	jmp    592 <printf+0x52>
 624:	8d 74 26 00          	lea    0x0(%esi,%eiz,1),%esi
 628:	8b 45 d0             	mov    -0x30(%ebp),%eax
 62b:	8b 10                	mov    (%eax),%edx
 62d:	83 c0 04             	add    $0x4,%eax
 630:	89 45 d0             	mov    %eax,-0x30(%ebp)
 633:	85 d2                	test   %edx,%edx
 635:	0f 84 8d 00 00 00    	je     6c8 <printf+0x188>
 63b:	0f b6 02             	movzbl (%edx),%eax
 63e:	31 c9                	xor    %ecx,%ecx
 640:	84 c0                	test   %al,%al
 642:	0f 84 4a ff ff ff    	je     592 <printf+0x52>
 648:	89 5d d4             	mov    %ebx,-0x2c(%ebp)
 64b:	89 d3                	mov    %edx,%ebx
 64d:	8d 76 00             	lea    0x0(%esi),%esi
 650:	83 ec 04             	sub    $0x4,%esp
 653:	83 c3 01             	add    $0x1,%ebx
 656:	88 45 e7             	mov    %al,-0x19(%ebp)
 659:	6a 01                	push   $0x1
 65b:	57                   	push   %edi
 65c:	56                   	push   %esi
 65d:	e8 81 fd ff ff       	call   3e3 <write>
 662:	0f b6 03             	movzbl (%ebx),%eax
 665:	83 c4 10             	add    $0x10,%esp
 668:	84 c0                	test   %al,%al
 66a:	75 e4                	jne    650 <printf+0x110>
 66c:	8b 5d d4             	mov    -0x2c(%ebp),%ebx
 66f:	31 c9                	xor    %ecx,%ecx
 671:	e9 1c ff ff ff       	jmp    592 <printf+0x52>
 676:	8d b4 26 00 00 00 00 	lea    0x0(%esi,%eiz,1),%esi
 67d:	8d 76 00             	lea    0x0(%esi),%esi
 680:	83 ec 0c             	sub    $0xc,%esp
 683:	b9 0a 00 00 00       	mov    $0xa,%ecx
 688:	6a 01                	push   $0x1
 68a:	e9 7b ff ff ff       	jmp    60a <printf+0xca>
 68f:	90                   	nop
 690:	8b 45 d0             	mov    -0x30(%ebp),%eax
 693:	83 ec 04             	sub    $0x4,%esp
 696:	8b 00                	mov    (%eax),%eax
 698:	6a 01                	push   $0x1
 69a:	57                   	push   %edi
 69b:	56                   	push   %esi
 69c:	88 45 e7             	mov    %al,-0x19(%ebp)
 69f:	e8 3f fd ff ff       	call   3e3 <write>
 6a4:	83 45 d0 04          	addl   $0x4,-0x30(%ebp)
 6a8:	83 c4 10             	add    $0x10,%esp
 6ab:	31 c9                	xor    %ecx,%ecx
 6ad:	e9 e0 fe ff ff       	jmp    592 <printf+0x52>
 6b2:	8d b6 00 00 00 00    	lea    0x0(%esi),%esi
 6b8:	88 55 e7             	mov    %dl,-0x19(%ebp)
 6bb:	83 ec 04             	sub    $0x4,%esp
 6be:	e9 2a ff ff ff       	jmp    5ed <printf+0xad>
 6c3:	8d 74 26 00          	lea    0x0(%esi,%eiz,1),%esi
 6c7:	90                   	nop
 6c8:	ba f7 08 00 00       	mov    $0x8f7,%edx
 6cd:	89 5d d4             	mov    %ebx,-0x2c(%ebp)
 6d0:	b8 28 00 00 00       	mov    $0x28,%eax
 6d5:	89 d3                	mov    %edx,%ebx
 6d7:	e9 74 ff ff ff       	jmp    650 <printf+0x110>
 6dc:	66 90                	xchg   %ax,%ax
 6de:	66 90                	xchg   %ax,%ax

000006e0 <free>:
static Header base;
static Header *freep;

void
free(void *ap)
{
 6e0:	55                   	push   %ebp
  Header *bp, *p;

  bp = (Header*)ap - 1;
  for(p = freep; !(bp > p && bp < p->s.ptr); p = p->s.ptr)
 6e1:	a1 20 0c 00 00       	mov    0xc20,%eax
{
 6e6:	89 e5                	mov    %esp,%ebp
 6e8:	57                   	push   %edi
 6e9:	56                   	push   %esi
 6ea:	53                   	push   %ebx
 6eb:	8b 5d 08             	mov    0x8(%ebp),%ebx
  bp = (Header*)ap - 1;
 6ee:	8d 4b f8             	lea    -0x8(%ebx),%ecx
  for(p = freep; !(bp > p && bp < p->s.ptr); p = p->s.ptr)
 6f1:	8d b4 26 00 00 00 00 	lea    0x0(%esi,%eiz,1),%esi
 6f8:	89 c2                	mov    %eax,%edx
 6fa:	8b 00                	mov    (%eax),%eax
 6fc:	39 ca                	cmp    %ecx,%edx
 6fe:	73 30                	jae    730 <free+0x50>
 700:	39 c1                	cmp    %eax,%ecx
 702:	72 04                	jb     708 <free+0x28>
    if(p >= p->s.ptr && (bp > p || bp < p->s.ptr))
 704:	39 c2                	cmp    %eax,%edx
 706:	72 f0                	jb     6f8 <free+0x18>
      break;
  if(bp + bp->s.size == p->s.ptr){
 708:	8b 73 fc             	mov    -0x4(%ebx),%esi
 70b:	8d 3c f1             	lea    (%ecx,%esi,8),%edi
 70e:	39 f8                	cmp    %edi,%eax
 710:	74 30                	je     742 <free+0x62>
    bp->s.size += p->s.ptr->s.size;
    bp->s.ptr = p->s.ptr->s.ptr;
 712:	89 43 f8             	mov    %eax,-0x8(%ebx)
  } else
    bp->s.ptr = p->s.ptr;
  if(p + p->s.size == bp){
 715:	8b 42 04             	mov    0x4(%edx),%eax
 718:	8d 34 c2             	lea    (%edx,%eax,8),%esi
 71b:	39 f1                	cmp    %esi,%ecx
 71d:	74 3a                	je     759 <free+0x79>
    p->s.size += bp->s.size;
    p->s.ptr = bp->s.ptr;
 71f:	89 0a                	mov    %ecx,(%edx)
  } else
    p->s.ptr = bp;
  freep = p;
}
 721:	5b                   	pop    %ebx
  freep = p;
 722:	89 15 20 0c 00 00    	mov    %edx,0xc20
}
 728:	5e                   	pop    %esi
 729:	5f                   	pop    %edi
 72a:	5d                   	pop    %ebp
 72b:	c3                   	ret    
 72c:	8d 74 26 00          	lea    0x0(%esi,%eiz,1),%esi
    if(p >= p->s.ptr && (bp > p || bp < p->s.ptr))
 730:	39 c2                	cmp    %eax,%edx
 732:	72 c4                	jb     6f8 <free+0x18>
 734:	39 c1                	cmp    %eax,%ecx
 736:	73 c0                	jae    6f8 <free+0x18>
  if(bp + bp->s.size == p->s.ptr){
 738:	8b 73 fc             	mov    -0x4(%ebx),%esi
 73b:	8d 3c f1             	lea    (%ecx,%esi,8),%edi
 73e:	39 f8                	cmp    %edi,%eax
 740:	75 d0                	jne    712 <free+0x32>
    bp->s.size += p->s.ptr->s.size;
 742:	03 70 04             	add    0x4(%eax),%esi
 745:	89 73 fc             	mov    %esi,-0x4(%ebx)
    bp->s.ptr = p->s.ptr->s.ptr;
 748:	8b 02                	mov    (%edx),%eax
 74a:	8b 00                	mov    (%eax),%eax
 74c:	89 43 f8             	mov    %eax,-0x8(%ebx)
  if(p + p->s.size == bp){
 74f:	8b 42 04             	mov    0x4(%edx),%eax
 752:	8d 34 c2             	lea    (%edx,%eax,8),%esi
 755:	39 f1                	cmp    %esi,%ecx
 757:	75 c6                	jne    71f <free+0x3f>
    p->s.size += bp->s.size;
 759:	03 43 fc             	add    -0x4(%ebx),%eax
  freep = p;
 75c:	89 15 20 0c 00 00    	mov    %edx,0xc20
    p->s.size += bp->s.size;
 762:	89 42 04             	mov    %eax,0x4(%edx)
    p->s.ptr = bp->s.ptr;
 765:	8b 4b f8             	mov    -0x8(%ebx),%ecx
 768:	89 0a                	mov    %ecx,(%edx)
}
 76a:	5b                   	pop    %ebx
 76b:	5e                   	pop    %esi
 76c:	5f                   	pop    %edi
 76d:	5d                   	pop    %ebp
 76e:	c3                   	ret    
 76f:	90                   	nop

00000770 <malloc>:
  return freep;
}

void*
malloc(uint nbytes)
{
 770:	55                   	push   %ebp
 771:	89 e5                	mov    %esp,%ebp
 773:	57                   	push   %edi
 774:	56                   	push   %esi
 775:	53                   	push   %ebx
 776:	83 ec 1c             	sub    $0x1c,%esp
  Header *p, *prevp;
  uint nunits;

  nunits = (nbytes + sizeof(Header) - 1)/sizeof(Header) + 1;
 779:	8b 45 08             	mov    0x8(%ebp),%eax
  if((prevp = freep) == 0){
 77c:	8b 3d 20 0c 00 00    	mov    0xc20,%edi
  nunits = (nbytes + sizeof(Header) - 1)/sizeof(Header) + 1;
 782:	8d 70 07             	lea    0x7(%eax),%esi
 785:	c1 ee 03             	shr    $0x3,%esi
 788:	83 c6 01             	add    $0x1,%esi
  if((prevp = freep) == 0){
 78b:	85 ff                	test   %edi,%edi
 78d:	0f 84 9d 00 00 00    	je     830 <malloc+0xc0>
    base.s.ptr = freep = prevp = &base;
    base.s.size = 0;
  }
  for(p = prevp->s.ptr; ; prevp = p, p = p->s.ptr){
 793:	8b 17                	mov    (%edi),%edx
    if(p->s.size >= nunits){
 795:	8b 4a 04             	mov    0x4(%edx),%ecx
 798:	39 f1                	cmp    %esi,%ecx
 79a:	73 6a                	jae    806 <malloc+0x96>
 79c:	bb 00 10 00 00       	mov    $0x1000,%ebx
 7a1:	39 de                	cmp    %ebx,%esi
 7a3:	0f 43 de             	cmovae %esi,%ebx
  p = sbrk(nu * sizeof(Header));
 7a6:	8d 04 dd 00 00 00 00 	lea    0x0(,%ebx,8),%eax
 7ad:	89 45 e4             	mov    %eax,-0x1c(%ebp)
 7b0:	eb 17                	jmp    7c9 <malloc+0x59>
 7b2:	8d b6 00 00 00 00    	lea    0x0(%esi),%esi
  for(p = prevp->s.ptr; ; prevp = p, p = p->s.ptr){
 7b8:	8b 02                	mov    (%edx),%eax
    if(p->s.size >= nunits){
 7ba:	8b 48 04             	mov    0x4(%eax),%ecx
 7bd:	39 f1                	cmp    %esi,%ecx
 7bf:	73 4f                	jae    810 <malloc+0xa0>
        p->s.size = nunits;
      }
      freep = prevp;
      return (void*)(p + 1);
    }
    if(p == freep)
 7c1:	8b 3d 20 0c 00 00    	mov    0xc20,%edi
 7c7:	89 c2                	mov    %eax,%edx
 7c9:	39 d7                	cmp    %edx,%edi
 7cb:	75 eb                	jne    7b8 <malloc+0x48>
  p = sbrk(nu * sizeof(Header));
 7cd:	83 ec 0c             	sub    $0xc,%esp
 7d0:	ff 75 e4             	push   -0x1c(%ebp)
 7d3:	e8 73 fc ff ff       	call   44b <sbrk>
  if(p == (char*)-1)
 7d8:	83 c4 10             	add    $0x10,%esp
 7db:	83 f8 ff             	cmp    $0xffffffff,%eax
 7de:	74 1c                	je     7fc <malloc+0x8c>
  hp->s.size = nu;
 7e0:	89 58 04             	mov    %ebx,0x4(%eax)
  free((void*)(hp + 1));
 7e3:	83 ec 0c             	sub    $0xc,%esp
 7e6:	83 c0 08             	add    $0x8,%eax
 7e9:	50                   	push   %eax
 7ea:	e8 f1 fe ff ff       	call   6e0 <free>
  return freep;
 7ef:	8b 15 20 0c 00 00    	mov    0xc20,%edx
      if((p = morecore(nunits)) == 0)
 7f5:	83 c4 10             	add    $0x10,%esp
 7f8:	85 d2                	test   %edx,%edx
 7fa:	75 bc                	jne    7b8 <malloc+0x48>
        return 0;
  }
}
 7fc:	8d 65 f4             	lea    -0xc(%ebp),%esp
        return 0;
 7ff:	31 c0                	xor    %eax,%eax
}
 801:	5b                   	pop    %ebx
 802:	5e                   	pop    %esi
 803:	5f                   	pop    %edi
 804:	5d                   	pop    %ebp
 805:	c3                   	ret    
    if(p->s.size >= nunits){
 806:	89 d0                	mov    %edx,%eax
 808:	89 fa                	mov    %edi,%edx
 80a:	8d b6 00 00 00 00    	lea    0x0(%esi),%esi
      if(p->s.size == nunits)
 810:	39 ce                	cmp    %ecx,%esi
 812:	74 4c                	je     860 <malloc+0xf0>
        p->s.size -= nunits;
 814:	29 f1                	sub    %esi,%ecx
 816:	89 48 04             	mov    %ecx,0x4(%eax)
        p += p->s.size;
 819:	8d 04 c8             	lea    (%eax,%ecx,8),%eax
        p->s.size = nunits;
 81c:	89 70 04             	mov    %esi,0x4(%eax)
      freep = prevp;
 81f:	89 15 20 0c 00 00    	mov    %edx,0xc20
}
 825:	8d 65 f4             	lea    -0xc(%ebp),%esp
      return (void*)(p + 1);
 828:	83 c0 08             	add    $0x8,%eax
}
 82b:	5b                   	pop    %ebx
 82c:	5e                   	pop    %esi
 82d:	5f                   	pop    %edi
 82e:	5d                   	pop    %ebp
 82f:	c3                   	ret    
    base.s.ptr = freep = prevp = &base;
 830:	c7 05 20 0c 00 00 24 	movl   $0xc24,0xc20
 837:	0c 00 00 
    base.s.size = 0;
 83a:	bf 24 0c 00 00       	mov    $0xc24,%edi
    base.s.ptr = freep = prevp = &base;
 83f:	c7 05 24 0c 00 00 24 	movl   $0xc24,0xc24
 846:	0c 00 00 
  for(p = prevp->s.ptr; ; prevp = p, p = p->s.ptr){
 849:	89 fa                	mov    %edi,%edx
    base.s.size = 0;
 84b:	c7 05 28 0c 00 00 00 	movl   $0x0,0xc28
 852:	00 00 00 
    if(p->s.size >= nunits){
 855:	e9 42 ff ff ff       	jmp    79c <malloc+0x2c>
 85a:	8d b6 00 00 00 00    	lea    0x0(%esi),%esi
        prevp->s.ptr = p->s.ptr;
 860:	8b 08                	mov    (%eax),%ecx
 862:	89 0a                	mov    %ecx,(%edx)
 864:	eb b9                	jmp    81f <malloc+0xaf>
