
_test_13:     file format elf32-i386


Disassembly of section .text:

00000000 <main>:
#include "user.h"
#include "fcntl.h"
#include "pstat.h"

int
main(int argc, char *argv[]) {
   0:	8d 4c 24 04          	lea    0x4(%esp),%ecx
   4:	83 e4 f0             	and    $0xfffffff0,%esp
   7:	ff 71 fc             	push   -0x4(%ecx)
   a:	55                   	push   %ebp
   b:	89 e5                	mov    %esp,%ebp
   d:	57                   	push   %edi
   e:	56                   	push   %esi
   f:	53                   	push   %ebx
  10:	51                   	push   %ecx
  11:	81 ec 50 04 00 00    	sub    $0x450,%esp
  struct pstat pstat;

  int pid1, pid2;
  int fd1, fd2;

  fd1 = open(p1_file, O_CREATE | O_WRONLY);
  17:	68 01 02 00 00       	push   $0x201
  1c:	68 b8 08 00 00       	push   $0x8b8
  21:	e8 2d 04 00 00       	call   453 <open>
  if (fd1 < 0) {
  26:	83 c4 10             	add    $0x10,%esp
  29:	85 c0                	test   %eax,%eax
  2b:	78 7d                	js     aa <main+0xaa>
  2d:	89 c3                	mov    %eax,%ebx
    printf(2, "Open %s failed\n", p1_file);
    exit();
  }
 
  fd2 = open(p2_file, O_CREATE | O_WRONLY);
  2f:	50                   	push   %eax
  30:	50                   	push   %eax
  31:	68 01 02 00 00       	push   $0x201
  36:	68 cf 08 00 00       	push   $0x8cf
  3b:	e8 13 04 00 00       	call   453 <open>
  if (fd2 < 0) {
  40:	83 c4 10             	add    $0x10,%esp
  fd2 = open(p2_file, O_CREATE | O_WRONLY);
  43:	89 c6                	mov    %eax,%esi
  if (fd2 < 0) {
  45:	85 c0                	test   %eax,%eax
  47:	78 4a                	js     93 <main+0x93>
    printf(2, "Open %s failed\n", p2_file);
    exit();
  }

  pid1 = fork();
  49:	e8 bd 03 00 00       	call   40b <fork>
  4e:	89 c7                	mov    %eax,%edi
  if (pid1 < 0) {
  50:	85 c0                	test   %eax,%eax
  52:	0f 88 3c 01 00 00    	js     194 <main+0x194>
    printf(2, "Fork child process 1 failed\n");
  } else if (pid1 == 0) { // child process 1
  58:	74 67                	je     c1 <main+0xc1>
    settickets(1);
    while(1)
      printf(fd1, "A");
  } 
  
  pid2 = fork();
  5a:	e8 ac 03 00 00       	call   40b <fork>
  if (pid2 < 0) {
  5f:	85 c0                	test   %eax,%eax
  61:	0f 88 7c 00 00 00    	js     e3 <main+0xe3>
    printf(2, "Fork child process 2 failed\n");
    exit();
  } else if (pid2 == 0) { // child process 2
  67:	0f 85 89 00 00 00    	jne    f6 <main+0xf6>
    settickets(0);
  6d:	83 ec 0c             	sub    $0xc,%esp
  70:	6a 00                	push   $0x0
  72:	e8 3c 04 00 00       	call   4b3 <settickets>
  77:	83 c4 10             	add    $0x10,%esp
  7a:	8d b6 00 00 00 00    	lea    0x0(%esi),%esi
    while (1)  
      printf(fd2, "A");
  80:	83 ec 08             	sub    $0x8,%esp
  83:	68 f3 08 00 00       	push   $0x8f3
  88:	56                   	push   %esi
  89:	e8 02 05 00 00       	call   590 <printf>
  8e:	83 c4 10             	add    $0x10,%esp
  91:	eb ed                	jmp    80 <main+0x80>
    printf(2, "Open %s failed\n", p2_file);
  93:	50                   	push   %eax
  94:	68 cf 08 00 00       	push   $0x8cf
  99:	68 bf 08 00 00       	push   $0x8bf
  9e:	6a 02                	push   $0x2
  a0:	e8 eb 04 00 00       	call   590 <printf>
    exit();
  a5:	e8 69 03 00 00       	call   413 <exit>
    printf(2, "Open %s failed\n", p1_file);
  aa:	52                   	push   %edx
  ab:	68 b8 08 00 00       	push   $0x8b8
  b0:	68 bf 08 00 00       	push   $0x8bf
  b5:	6a 02                	push   $0x2
  b7:	e8 d4 04 00 00       	call   590 <printf>
    exit();
  bc:	e8 52 03 00 00       	call   413 <exit>
    settickets(1);
  c1:	83 ec 0c             	sub    $0xc,%esp
  c4:	6a 01                	push   $0x1
  c6:	e8 e8 03 00 00       	call   4b3 <settickets>
  cb:	83 c4 10             	add    $0x10,%esp
  ce:	66 90                	xchg   %ax,%ax
      printf(fd1, "A");
  d0:	83 ec 08             	sub    $0x8,%esp
  d3:	68 f3 08 00 00       	push   $0x8f3
  d8:	53                   	push   %ebx
  d9:	e8 b2 04 00 00       	call   590 <printf>
  de:	83 c4 10             	add    $0x10,%esp
  e1:	eb ed                	jmp    d0 <main+0xd0>
    printf(2, "Fork child process 2 failed\n");
  e3:	50                   	push   %eax
  e4:	50                   	push   %eax
  e5:	68 f5 08 00 00       	push   $0x8f5
  ea:	6a 02                	push   $0x2
  ec:	e8 9f 04 00 00       	call   590 <printf>
    exit();
  f1:	e8 1d 03 00 00       	call   413 <exit>
  }

  sleep(1000);
  f6:	83 ec 0c             	sub    $0xc,%esp
  f9:	89 85 b4 fb ff ff    	mov    %eax,-0x44c(%ebp)
  ff:	68 e8 03 00 00       	push   $0x3e8
 104:	e8 9a 03 00 00       	call   4a3 <sleep>
  getpinfo(&pstat);
 109:	8d 85 e8 fb ff ff    	lea    -0x418(%ebp),%eax
 10f:	89 04 24             	mov    %eax,(%esp)
 112:	e8 a4 03 00 00       	call   4bb <getpinfo>
  kill(pid1);
 117:	89 3c 24             	mov    %edi,(%esp)
 11a:	e8 24 03 00 00       	call   443 <kill>
  kill(pid2);
 11f:	8b 95 b4 fb ff ff    	mov    -0x44c(%ebp),%edx
 125:	89 14 24             	mov    %edx,(%esp)
 128:	e8 16 03 00 00       	call   443 <kill>

  wait();
 12d:	e8 e9 02 00 00       	call   41b <wait>
  wait();
 132:	e8 e4 02 00 00       	call   41b <wait>

  fstat(fd1, &f1);
 137:	8d 85 c0 fb ff ff    	lea    -0x440(%ebp),%eax
 13d:	5a                   	pop    %edx
 13e:	59                   	pop    %ecx
 13f:	50                   	push   %eax
 140:	53                   	push   %ebx
 141:	e8 25 03 00 00       	call   46b <fstat>
  fstat(fd2, &f2);
 146:	5f                   	pop    %edi
 147:	58                   	pop    %eax
 148:	8d 85 d4 fb ff ff    	lea    -0x42c(%ebp),%eax
 14e:	50                   	push   %eax
 14f:	56                   	push   %esi
 150:	e8 16 03 00 00       	call   46b <fstat>
  // compare file size made by child process
  if (f1.size > f2.size) {
 155:	8b 85 e4 fb ff ff    	mov    -0x41c(%ebp),%eax
 15b:	83 c4 10             	add    $0x10,%esp
 15e:	39 85 d0 fb ff ff    	cmp    %eax,-0x430(%ebp)
 164:	77 44                	ja     1aa <main+0x1aa>
    printf(1, "XV6_SCHEDULER\t SUCCESS\n");
  }

  close(fd1);
 166:	83 ec 0c             	sub    $0xc,%esp
 169:	53                   	push   %ebx
 16a:	e8 cc 02 00 00       	call   43b <close>
  close(fd2);
 16f:	89 34 24             	mov    %esi,(%esp)
 172:	e8 c4 02 00 00       	call   43b <close>
  
  unlink(p1_file);
 177:	c7 04 24 b8 08 00 00 	movl   $0x8b8,(%esp)
 17e:	e8 e0 02 00 00       	call   463 <unlink>
  unlink(p2_file);
 183:	c7 04 24 cf 08 00 00 	movl   $0x8cf,(%esp)
 18a:	e8 d4 02 00 00       	call   463 <unlink>

  exit();
 18f:	e8 7f 02 00 00       	call   413 <exit>
    printf(2, "Fork child process 1 failed\n");
 194:	50                   	push   %eax
 195:	50                   	push   %eax
 196:	68 d6 08 00 00       	push   $0x8d6
 19b:	6a 02                	push   $0x2
 19d:	e8 ee 03 00 00       	call   590 <printf>
 1a2:	83 c4 10             	add    $0x10,%esp
 1a5:	e9 b0 fe ff ff       	jmp    5a <main+0x5a>
    printf(1, "XV6_SCHEDULER\t SUCCESS\n");
 1aa:	50                   	push   %eax
 1ab:	50                   	push   %eax
 1ac:	68 12 09 00 00       	push   $0x912
 1b1:	6a 01                	push   $0x1
 1b3:	e8 d8 03 00 00       	call   590 <printf>
 1b8:	83 c4 10             	add    $0x10,%esp
 1bb:	eb a9                	jmp    166 <main+0x166>
 1bd:	66 90                	xchg   %ax,%ax
 1bf:	90                   	nop

000001c0 <strcpy>:
 1c0:	55                   	push   %ebp
 1c1:	31 c0                	xor    %eax,%eax
 1c3:	89 e5                	mov    %esp,%ebp
 1c5:	53                   	push   %ebx
 1c6:	8b 4d 08             	mov    0x8(%ebp),%ecx
 1c9:	8b 5d 0c             	mov    0xc(%ebp),%ebx
 1cc:	8d 74 26 00          	lea    0x0(%esi,%eiz,1),%esi
 1d0:	0f b6 14 03          	movzbl (%ebx,%eax,1),%edx
 1d4:	88 14 01             	mov    %dl,(%ecx,%eax,1)
 1d7:	83 c0 01             	add    $0x1,%eax
 1da:	84 d2                	test   %dl,%dl
 1dc:	75 f2                	jne    1d0 <strcpy+0x10>
 1de:	8b 5d fc             	mov    -0x4(%ebp),%ebx
 1e1:	89 c8                	mov    %ecx,%eax
 1e3:	c9                   	leave  
 1e4:	c3                   	ret    
 1e5:	8d b4 26 00 00 00 00 	lea    0x0(%esi,%eiz,1),%esi
 1ec:	8d 74 26 00          	lea    0x0(%esi,%eiz,1),%esi

000001f0 <strcmp>:
 1f0:	55                   	push   %ebp
 1f1:	89 e5                	mov    %esp,%ebp
 1f3:	53                   	push   %ebx
 1f4:	8b 55 08             	mov    0x8(%ebp),%edx
 1f7:	8b 4d 0c             	mov    0xc(%ebp),%ecx
 1fa:	0f b6 02             	movzbl (%edx),%eax
 1fd:	84 c0                	test   %al,%al
 1ff:	75 17                	jne    218 <strcmp+0x28>
 201:	eb 3a                	jmp    23d <strcmp+0x4d>
 203:	8d 74 26 00          	lea    0x0(%esi,%eiz,1),%esi
 207:	90                   	nop
 208:	0f b6 42 01          	movzbl 0x1(%edx),%eax
 20c:	83 c2 01             	add    $0x1,%edx
 20f:	8d 59 01             	lea    0x1(%ecx),%ebx
 212:	84 c0                	test   %al,%al
 214:	74 1a                	je     230 <strcmp+0x40>
 216:	89 d9                	mov    %ebx,%ecx
 218:	0f b6 19             	movzbl (%ecx),%ebx
 21b:	38 c3                	cmp    %al,%bl
 21d:	74 e9                	je     208 <strcmp+0x18>
 21f:	29 d8                	sub    %ebx,%eax
 221:	8b 5d fc             	mov    -0x4(%ebp),%ebx
 224:	c9                   	leave  
 225:	c3                   	ret    
 226:	8d b4 26 00 00 00 00 	lea    0x0(%esi,%eiz,1),%esi
 22d:	8d 76 00             	lea    0x0(%esi),%esi
 230:	0f b6 59 01          	movzbl 0x1(%ecx),%ebx
 234:	31 c0                	xor    %eax,%eax
 236:	29 d8                	sub    %ebx,%eax
 238:	8b 5d fc             	mov    -0x4(%ebp),%ebx
 23b:	c9                   	leave  
 23c:	c3                   	ret    
 23d:	0f b6 19             	movzbl (%ecx),%ebx
 240:	31 c0                	xor    %eax,%eax
 242:	eb db                	jmp    21f <strcmp+0x2f>
 244:	8d b4 26 00 00 00 00 	lea    0x0(%esi,%eiz,1),%esi
 24b:	8d 74 26 00          	lea    0x0(%esi,%eiz,1),%esi
 24f:	90                   	nop

00000250 <strlen>:
 250:	55                   	push   %ebp
 251:	89 e5                	mov    %esp,%ebp
 253:	8b 55 08             	mov    0x8(%ebp),%edx
 256:	80 3a 00             	cmpb   $0x0,(%edx)
 259:	74 15                	je     270 <strlen+0x20>
 25b:	31 c0                	xor    %eax,%eax
 25d:	8d 76 00             	lea    0x0(%esi),%esi
 260:	83 c0 01             	add    $0x1,%eax
 263:	80 3c 02 00          	cmpb   $0x0,(%edx,%eax,1)
 267:	89 c1                	mov    %eax,%ecx
 269:	75 f5                	jne    260 <strlen+0x10>
 26b:	89 c8                	mov    %ecx,%eax
 26d:	5d                   	pop    %ebp
 26e:	c3                   	ret    
 26f:	90                   	nop
 270:	31 c9                	xor    %ecx,%ecx
 272:	5d                   	pop    %ebp
 273:	89 c8                	mov    %ecx,%eax
 275:	c3                   	ret    
 276:	8d b4 26 00 00 00 00 	lea    0x0(%esi,%eiz,1),%esi
 27d:	8d 76 00             	lea    0x0(%esi),%esi

00000280 <memset>:
 280:	55                   	push   %ebp
 281:	89 e5                	mov    %esp,%ebp
 283:	57                   	push   %edi
 284:	8b 55 08             	mov    0x8(%ebp),%edx
 287:	8b 4d 10             	mov    0x10(%ebp),%ecx
 28a:	8b 45 0c             	mov    0xc(%ebp),%eax
 28d:	89 d7                	mov    %edx,%edi
 28f:	fc                   	cld    
 290:	f3 aa                	rep stos %al,%es:(%edi)
 292:	8b 7d fc             	mov    -0x4(%ebp),%edi
 295:	89 d0                	mov    %edx,%eax
 297:	c9                   	leave  
 298:	c3                   	ret    
 299:	8d b4 26 00 00 00 00 	lea    0x0(%esi,%eiz,1),%esi

000002a0 <strchr>:
 2a0:	55                   	push   %ebp
 2a1:	89 e5                	mov    %esp,%ebp
 2a3:	8b 45 08             	mov    0x8(%ebp),%eax
 2a6:	0f b6 4d 0c          	movzbl 0xc(%ebp),%ecx
 2aa:	0f b6 10             	movzbl (%eax),%edx
 2ad:	84 d2                	test   %dl,%dl
 2af:	75 12                	jne    2c3 <strchr+0x23>
 2b1:	eb 1d                	jmp    2d0 <strchr+0x30>
 2b3:	8d 74 26 00          	lea    0x0(%esi,%eiz,1),%esi
 2b7:	90                   	nop
 2b8:	0f b6 50 01          	movzbl 0x1(%eax),%edx
 2bc:	83 c0 01             	add    $0x1,%eax
 2bf:	84 d2                	test   %dl,%dl
 2c1:	74 0d                	je     2d0 <strchr+0x30>
 2c3:	38 d1                	cmp    %dl,%cl
 2c5:	75 f1                	jne    2b8 <strchr+0x18>
 2c7:	5d                   	pop    %ebp
 2c8:	c3                   	ret    
 2c9:	8d b4 26 00 00 00 00 	lea    0x0(%esi,%eiz,1),%esi
 2d0:	31 c0                	xor    %eax,%eax
 2d2:	5d                   	pop    %ebp
 2d3:	c3                   	ret    
 2d4:	8d b4 26 00 00 00 00 	lea    0x0(%esi,%eiz,1),%esi
 2db:	8d 74 26 00          	lea    0x0(%esi,%eiz,1),%esi
 2df:	90                   	nop

000002e0 <gets>:
 2e0:	55                   	push   %ebp
 2e1:	89 e5                	mov    %esp,%ebp
 2e3:	57                   	push   %edi
 2e4:	56                   	push   %esi
 2e5:	8d 7d e7             	lea    -0x19(%ebp),%edi
 2e8:	53                   	push   %ebx
 2e9:	31 db                	xor    %ebx,%ebx
 2eb:	83 ec 1c             	sub    $0x1c,%esp
 2ee:	eb 27                	jmp    317 <gets+0x37>
 2f0:	83 ec 04             	sub    $0x4,%esp
 2f3:	6a 01                	push   $0x1
 2f5:	57                   	push   %edi
 2f6:	6a 00                	push   $0x0
 2f8:	e8 2e 01 00 00       	call   42b <read>
 2fd:	83 c4 10             	add    $0x10,%esp
 300:	85 c0                	test   %eax,%eax
 302:	7e 1d                	jle    321 <gets+0x41>
 304:	0f b6 45 e7          	movzbl -0x19(%ebp),%eax
 308:	8b 55 08             	mov    0x8(%ebp),%edx
 30b:	88 44 1a ff          	mov    %al,-0x1(%edx,%ebx,1)
 30f:	3c 0a                	cmp    $0xa,%al
 311:	74 1d                	je     330 <gets+0x50>
 313:	3c 0d                	cmp    $0xd,%al
 315:	74 19                	je     330 <gets+0x50>
 317:	89 de                	mov    %ebx,%esi
 319:	83 c3 01             	add    $0x1,%ebx
 31c:	3b 5d 0c             	cmp    0xc(%ebp),%ebx
 31f:	7c cf                	jl     2f0 <gets+0x10>
 321:	8b 45 08             	mov    0x8(%ebp),%eax
 324:	c6 04 30 00          	movb   $0x0,(%eax,%esi,1)
 328:	8d 65 f4             	lea    -0xc(%ebp),%esp
 32b:	5b                   	pop    %ebx
 32c:	5e                   	pop    %esi
 32d:	5f                   	pop    %edi
 32e:	5d                   	pop    %ebp
 32f:	c3                   	ret    
 330:	8b 45 08             	mov    0x8(%ebp),%eax
 333:	89 de                	mov    %ebx,%esi
 335:	c6 04 30 00          	movb   $0x0,(%eax,%esi,1)
 339:	8d 65 f4             	lea    -0xc(%ebp),%esp
 33c:	5b                   	pop    %ebx
 33d:	5e                   	pop    %esi
 33e:	5f                   	pop    %edi
 33f:	5d                   	pop    %ebp
 340:	c3                   	ret    
 341:	8d b4 26 00 00 00 00 	lea    0x0(%esi,%eiz,1),%esi
 348:	8d b4 26 00 00 00 00 	lea    0x0(%esi,%eiz,1),%esi
 34f:	90                   	nop

00000350 <stat>:
 350:	55                   	push   %ebp
 351:	89 e5                	mov    %esp,%ebp
 353:	56                   	push   %esi
 354:	53                   	push   %ebx
 355:	83 ec 08             	sub    $0x8,%esp
 358:	6a 00                	push   $0x0
 35a:	ff 75 08             	push   0x8(%ebp)
 35d:	e8 f1 00 00 00       	call   453 <open>
 362:	83 c4 10             	add    $0x10,%esp
 365:	85 c0                	test   %eax,%eax
 367:	78 27                	js     390 <stat+0x40>
 369:	83 ec 08             	sub    $0x8,%esp
 36c:	ff 75 0c             	push   0xc(%ebp)
 36f:	89 c3                	mov    %eax,%ebx
 371:	50                   	push   %eax
 372:	e8 f4 00 00 00       	call   46b <fstat>
 377:	89 1c 24             	mov    %ebx,(%esp)
 37a:	89 c6                	mov    %eax,%esi
 37c:	e8 ba 00 00 00       	call   43b <close>
 381:	83 c4 10             	add    $0x10,%esp
 384:	8d 65 f8             	lea    -0x8(%ebp),%esp
 387:	89 f0                	mov    %esi,%eax
 389:	5b                   	pop    %ebx
 38a:	5e                   	pop    %esi
 38b:	5d                   	pop    %ebp
 38c:	c3                   	ret    
 38d:	8d 76 00             	lea    0x0(%esi),%esi
 390:	be ff ff ff ff       	mov    $0xffffffff,%esi
 395:	eb ed                	jmp    384 <stat+0x34>
 397:	8d b4 26 00 00 00 00 	lea    0x0(%esi,%eiz,1),%esi
 39e:	66 90                	xchg   %ax,%ax

000003a0 <atoi>:
 3a0:	55                   	push   %ebp
 3a1:	89 e5                	mov    %esp,%ebp
 3a3:	53                   	push   %ebx
 3a4:	8b 55 08             	mov    0x8(%ebp),%edx
 3a7:	0f be 02             	movsbl (%edx),%eax
 3aa:	8d 48 d0             	lea    -0x30(%eax),%ecx
 3ad:	80 f9 09             	cmp    $0x9,%cl
 3b0:	b9 00 00 00 00       	mov    $0x0,%ecx
 3b5:	77 1e                	ja     3d5 <atoi+0x35>
 3b7:	8d b4 26 00 00 00 00 	lea    0x0(%esi,%eiz,1),%esi
 3be:	66 90                	xchg   %ax,%ax
 3c0:	83 c2 01             	add    $0x1,%edx
 3c3:	8d 0c 89             	lea    (%ecx,%ecx,4),%ecx
 3c6:	8d 4c 48 d0          	lea    -0x30(%eax,%ecx,2),%ecx
 3ca:	0f be 02             	movsbl (%edx),%eax
 3cd:	8d 58 d0             	lea    -0x30(%eax),%ebx
 3d0:	80 fb 09             	cmp    $0x9,%bl
 3d3:	76 eb                	jbe    3c0 <atoi+0x20>
 3d5:	8b 5d fc             	mov    -0x4(%ebp),%ebx
 3d8:	89 c8                	mov    %ecx,%eax
 3da:	c9                   	leave  
 3db:	c3                   	ret    
 3dc:	8d 74 26 00          	lea    0x0(%esi,%eiz,1),%esi

000003e0 <memmove>:
 3e0:	55                   	push   %ebp
 3e1:	89 e5                	mov    %esp,%ebp
 3e3:	57                   	push   %edi
 3e4:	8b 45 10             	mov    0x10(%ebp),%eax
 3e7:	8b 55 08             	mov    0x8(%ebp),%edx
 3ea:	56                   	push   %esi
 3eb:	8b 75 0c             	mov    0xc(%ebp),%esi
 3ee:	85 c0                	test   %eax,%eax
 3f0:	7e 13                	jle    405 <memmove+0x25>
 3f2:	01 d0                	add    %edx,%eax
 3f4:	89 d7                	mov    %edx,%edi
 3f6:	8d b4 26 00 00 00 00 	lea    0x0(%esi,%eiz,1),%esi
 3fd:	8d 76 00             	lea    0x0(%esi),%esi
 400:	a4                   	movsb  %ds:(%esi),%es:(%edi)
 401:	39 f8                	cmp    %edi,%eax
 403:	75 fb                	jne    400 <memmove+0x20>
 405:	5e                   	pop    %esi
 406:	89 d0                	mov    %edx,%eax
 408:	5f                   	pop    %edi
 409:	5d                   	pop    %ebp
 40a:	c3                   	ret    

0000040b <fork>:
 40b:	b8 01 00 00 00       	mov    $0x1,%eax
 410:	cd 40                	int    $0x40
 412:	c3                   	ret    

00000413 <exit>:
 413:	b8 02 00 00 00       	mov    $0x2,%eax
 418:	cd 40                	int    $0x40
 41a:	c3                   	ret    

0000041b <wait>:
 41b:	b8 03 00 00 00       	mov    $0x3,%eax
 420:	cd 40                	int    $0x40
 422:	c3                   	ret    

00000423 <pipe>:
 423:	b8 04 00 00 00       	mov    $0x4,%eax
 428:	cd 40                	int    $0x40
 42a:	c3                   	ret    

0000042b <read>:
 42b:	b8 05 00 00 00       	mov    $0x5,%eax
 430:	cd 40                	int    $0x40
 432:	c3                   	ret    

00000433 <write>:
 433:	b8 10 00 00 00       	mov    $0x10,%eax
 438:	cd 40                	int    $0x40
 43a:	c3                   	ret    

0000043b <close>:
 43b:	b8 15 00 00 00       	mov    $0x15,%eax
 440:	cd 40                	int    $0x40
 442:	c3                   	ret    

00000443 <kill>:
 443:	b8 06 00 00 00       	mov    $0x6,%eax
 448:	cd 40                	int    $0x40
 44a:	c3                   	ret    

0000044b <exec>:
 44b:	b8 07 00 00 00       	mov    $0x7,%eax
 450:	cd 40                	int    $0x40
 452:	c3                   	ret    

00000453 <open>:
 453:	b8 0f 00 00 00       	mov    $0xf,%eax
 458:	cd 40                	int    $0x40
 45a:	c3                   	ret    

0000045b <mknod>:
 45b:	b8 11 00 00 00       	mov    $0x11,%eax
 460:	cd 40                	int    $0x40
 462:	c3                   	ret    

00000463 <unlink>:
 463:	b8 12 00 00 00       	mov    $0x12,%eax
 468:	cd 40                	int    $0x40
 46a:	c3                   	ret    

0000046b <fstat>:
 46b:	b8 08 00 00 00       	mov    $0x8,%eax
 470:	cd 40                	int    $0x40
 472:	c3                   	ret    

00000473 <link>:
 473:	b8 13 00 00 00       	mov    $0x13,%eax
 478:	cd 40                	int    $0x40
 47a:	c3                   	ret    

0000047b <mkdir>:
 47b:	b8 14 00 00 00       	mov    $0x14,%eax
 480:	cd 40                	int    $0x40
 482:	c3                   	ret    

00000483 <chdir>:
 483:	b8 09 00 00 00       	mov    $0x9,%eax
 488:	cd 40                	int    $0x40
 48a:	c3                   	ret    

0000048b <dup>:
 48b:	b8 0a 00 00 00       	mov    $0xa,%eax
 490:	cd 40                	int    $0x40
 492:	c3                   	ret    

00000493 <getpid>:
 493:	b8 0b 00 00 00       	mov    $0xb,%eax
 498:	cd 40                	int    $0x40
 49a:	c3                   	ret    

0000049b <sbrk>:
 49b:	b8 0c 00 00 00       	mov    $0xc,%eax
 4a0:	cd 40                	int    $0x40
 4a2:	c3                   	ret    

000004a3 <sleep>:
 4a3:	b8 0d 00 00 00       	mov    $0xd,%eax
 4a8:	cd 40                	int    $0x40
 4aa:	c3                   	ret    

000004ab <uptime>:
 4ab:	b8 0e 00 00 00       	mov    $0xe,%eax
 4b0:	cd 40                	int    $0x40
 4b2:	c3                   	ret    

000004b3 <settickets>:
 4b3:	b8 16 00 00 00       	mov    $0x16,%eax
 4b8:	cd 40                	int    $0x40
 4ba:	c3                   	ret    

000004bb <getpinfo>:
 4bb:	b8 17 00 00 00       	mov    $0x17,%eax
 4c0:	cd 40                	int    $0x40
 4c2:	c3                   	ret    

000004c3 <mprotect>:
 4c3:	b8 18 00 00 00       	mov    $0x18,%eax
 4c8:	cd 40                	int    $0x40
 4ca:	c3                   	ret    

000004cb <munprotect>:
 4cb:	b8 19 00 00 00       	mov    $0x19,%eax
 4d0:	cd 40                	int    $0x40
 4d2:	c3                   	ret    
 4d3:	66 90                	xchg   %ax,%ax
 4d5:	66 90                	xchg   %ax,%ax
 4d7:	66 90                	xchg   %ax,%ax
 4d9:	66 90                	xchg   %ax,%ax
 4db:	66 90                	xchg   %ax,%ax
 4dd:	66 90                	xchg   %ax,%ax
 4df:	90                   	nop

000004e0 <printint>:
 4e0:	55                   	push   %ebp
 4e1:	89 e5                	mov    %esp,%ebp
 4e3:	57                   	push   %edi
 4e4:	56                   	push   %esi
 4e5:	53                   	push   %ebx
 4e6:	83 ec 3c             	sub    $0x3c,%esp
 4e9:	89 4d c4             	mov    %ecx,-0x3c(%ebp)
 4ec:	89 d1                	mov    %edx,%ecx
 4ee:	89 45 b8             	mov    %eax,-0x48(%ebp)
 4f1:	85 d2                	test   %edx,%edx
 4f3:	0f 89 7f 00 00 00    	jns    578 <printint+0x98>
 4f9:	f6 45 08 01          	testb  $0x1,0x8(%ebp)
 4fd:	74 79                	je     578 <printint+0x98>
 4ff:	c7 45 bc 01 00 00 00 	movl   $0x1,-0x44(%ebp)
 506:	f7 d9                	neg    %ecx
 508:	31 db                	xor    %ebx,%ebx
 50a:	8d 75 d7             	lea    -0x29(%ebp),%esi
 50d:	8d 76 00             	lea    0x0(%esi),%esi
 510:	89 c8                	mov    %ecx,%eax
 512:	31 d2                	xor    %edx,%edx
 514:	89 cf                	mov    %ecx,%edi
 516:	f7 75 c4             	divl   -0x3c(%ebp)
 519:	0f b6 92 8c 09 00 00 	movzbl 0x98c(%edx),%edx
 520:	89 45 c0             	mov    %eax,-0x40(%ebp)
 523:	89 d8                	mov    %ebx,%eax
 525:	8d 5b 01             	lea    0x1(%ebx),%ebx
 528:	8b 4d c0             	mov    -0x40(%ebp),%ecx
 52b:	88 14 1e             	mov    %dl,(%esi,%ebx,1)
 52e:	39 7d c4             	cmp    %edi,-0x3c(%ebp)
 531:	76 dd                	jbe    510 <printint+0x30>
 533:	8b 4d bc             	mov    -0x44(%ebp),%ecx
 536:	85 c9                	test   %ecx,%ecx
 538:	74 0c                	je     546 <printint+0x66>
 53a:	c6 44 1d d8 2d       	movb   $0x2d,-0x28(%ebp,%ebx,1)
 53f:	89 d8                	mov    %ebx,%eax
 541:	ba 2d 00 00 00       	mov    $0x2d,%edx
 546:	8b 7d b8             	mov    -0x48(%ebp),%edi
 549:	8d 5c 05 d7          	lea    -0x29(%ebp,%eax,1),%ebx
 54d:	eb 07                	jmp    556 <printint+0x76>
 54f:	90                   	nop
 550:	0f b6 13             	movzbl (%ebx),%edx
 553:	83 eb 01             	sub    $0x1,%ebx
 556:	83 ec 04             	sub    $0x4,%esp
 559:	88 55 d7             	mov    %dl,-0x29(%ebp)
 55c:	6a 01                	push   $0x1
 55e:	56                   	push   %esi
 55f:	57                   	push   %edi
 560:	e8 ce fe ff ff       	call   433 <write>
 565:	83 c4 10             	add    $0x10,%esp
 568:	39 de                	cmp    %ebx,%esi
 56a:	75 e4                	jne    550 <printint+0x70>
 56c:	8d 65 f4             	lea    -0xc(%ebp),%esp
 56f:	5b                   	pop    %ebx
 570:	5e                   	pop    %esi
 571:	5f                   	pop    %edi
 572:	5d                   	pop    %ebp
 573:	c3                   	ret    
 574:	8d 74 26 00          	lea    0x0(%esi,%eiz,1),%esi
 578:	c7 45 bc 00 00 00 00 	movl   $0x0,-0x44(%ebp)
 57f:	eb 87                	jmp    508 <printint+0x28>
 581:	8d b4 26 00 00 00 00 	lea    0x0(%esi,%eiz,1),%esi
 588:	8d b4 26 00 00 00 00 	lea    0x0(%esi,%eiz,1),%esi
 58f:	90                   	nop

00000590 <printf>:
 590:	55                   	push   %ebp
 591:	89 e5                	mov    %esp,%ebp
 593:	57                   	push   %edi
 594:	56                   	push   %esi
 595:	53                   	push   %ebx
 596:	83 ec 2c             	sub    $0x2c,%esp
 599:	8b 5d 0c             	mov    0xc(%ebp),%ebx
 59c:	8b 75 08             	mov    0x8(%ebp),%esi
 59f:	0f b6 13             	movzbl (%ebx),%edx
 5a2:	84 d2                	test   %dl,%dl
 5a4:	74 6a                	je     610 <printf+0x80>
 5a6:	8d 45 10             	lea    0x10(%ebp),%eax
 5a9:	83 c3 01             	add    $0x1,%ebx
 5ac:	8d 7d e7             	lea    -0x19(%ebp),%edi
 5af:	31 c9                	xor    %ecx,%ecx
 5b1:	89 45 d0             	mov    %eax,-0x30(%ebp)
 5b4:	eb 36                	jmp    5ec <printf+0x5c>
 5b6:	8d b4 26 00 00 00 00 	lea    0x0(%esi,%eiz,1),%esi
 5bd:	8d 76 00             	lea    0x0(%esi),%esi
 5c0:	89 4d d4             	mov    %ecx,-0x2c(%ebp)
 5c3:	b9 25 00 00 00       	mov    $0x25,%ecx
 5c8:	83 f8 25             	cmp    $0x25,%eax
 5cb:	74 15                	je     5e2 <printf+0x52>
 5cd:	83 ec 04             	sub    $0x4,%esp
 5d0:	88 55 e7             	mov    %dl,-0x19(%ebp)
 5d3:	6a 01                	push   $0x1
 5d5:	57                   	push   %edi
 5d6:	56                   	push   %esi
 5d7:	e8 57 fe ff ff       	call   433 <write>
 5dc:	8b 4d d4             	mov    -0x2c(%ebp),%ecx
 5df:	83 c4 10             	add    $0x10,%esp
 5e2:	0f b6 13             	movzbl (%ebx),%edx
 5e5:	83 c3 01             	add    $0x1,%ebx
 5e8:	84 d2                	test   %dl,%dl
 5ea:	74 24                	je     610 <printf+0x80>
 5ec:	0f b6 c2             	movzbl %dl,%eax
 5ef:	85 c9                	test   %ecx,%ecx
 5f1:	74 cd                	je     5c0 <printf+0x30>
 5f3:	83 f9 25             	cmp    $0x25,%ecx
 5f6:	75 ea                	jne    5e2 <printf+0x52>
 5f8:	83 f8 25             	cmp    $0x25,%eax
 5fb:	0f 84 07 01 00 00    	je     708 <printf+0x178>
 601:	83 e8 63             	sub    $0x63,%eax
 604:	83 f8 15             	cmp    $0x15,%eax
 607:	77 17                	ja     620 <printf+0x90>
 609:	ff 24 85 34 09 00 00 	jmp    *0x934(,%eax,4)
 610:	8d 65 f4             	lea    -0xc(%ebp),%esp
 613:	5b                   	pop    %ebx
 614:	5e                   	pop    %esi
 615:	5f                   	pop    %edi
 616:	5d                   	pop    %ebp
 617:	c3                   	ret    
 618:	8d b4 26 00 00 00 00 	lea    0x0(%esi,%eiz,1),%esi
 61f:	90                   	nop
 620:	83 ec 04             	sub    $0x4,%esp
 623:	88 55 d4             	mov    %dl,-0x2c(%ebp)
 626:	6a 01                	push   $0x1
 628:	57                   	push   %edi
 629:	56                   	push   %esi
 62a:	c6 45 e7 25          	movb   $0x25,-0x19(%ebp)
 62e:	e8 00 fe ff ff       	call   433 <write>
 633:	0f b6 55 d4          	movzbl -0x2c(%ebp),%edx
 637:	83 c4 0c             	add    $0xc,%esp
 63a:	88 55 e7             	mov    %dl,-0x19(%ebp)
 63d:	6a 01                	push   $0x1
 63f:	57                   	push   %edi
 640:	56                   	push   %esi
 641:	e8 ed fd ff ff       	call   433 <write>
 646:	83 c4 10             	add    $0x10,%esp
 649:	31 c9                	xor    %ecx,%ecx
 64b:	eb 95                	jmp    5e2 <printf+0x52>
 64d:	8d 76 00             	lea    0x0(%esi),%esi
 650:	83 ec 0c             	sub    $0xc,%esp
 653:	b9 10 00 00 00       	mov    $0x10,%ecx
 658:	6a 00                	push   $0x0
 65a:	8b 45 d0             	mov    -0x30(%ebp),%eax
 65d:	8b 10                	mov    (%eax),%edx
 65f:	89 f0                	mov    %esi,%eax
 661:	e8 7a fe ff ff       	call   4e0 <printint>
 666:	83 45 d0 04          	addl   $0x4,-0x30(%ebp)
 66a:	83 c4 10             	add    $0x10,%esp
 66d:	31 c9                	xor    %ecx,%ecx
 66f:	e9 6e ff ff ff       	jmp    5e2 <printf+0x52>
 674:	8d 74 26 00          	lea    0x0(%esi,%eiz,1),%esi
 678:	8b 45 d0             	mov    -0x30(%ebp),%eax
 67b:	8b 10                	mov    (%eax),%edx
 67d:	83 c0 04             	add    $0x4,%eax
 680:	89 45 d0             	mov    %eax,-0x30(%ebp)
 683:	85 d2                	test   %edx,%edx
 685:	0f 84 8d 00 00 00    	je     718 <printf+0x188>
 68b:	0f b6 02             	movzbl (%edx),%eax
 68e:	31 c9                	xor    %ecx,%ecx
 690:	84 c0                	test   %al,%al
 692:	0f 84 4a ff ff ff    	je     5e2 <printf+0x52>
 698:	89 5d d4             	mov    %ebx,-0x2c(%ebp)
 69b:	89 d3                	mov    %edx,%ebx
 69d:	8d 76 00             	lea    0x0(%esi),%esi
 6a0:	83 ec 04             	sub    $0x4,%esp
 6a3:	83 c3 01             	add    $0x1,%ebx
 6a6:	88 45 e7             	mov    %al,-0x19(%ebp)
 6a9:	6a 01                	push   $0x1
 6ab:	57                   	push   %edi
 6ac:	56                   	push   %esi
 6ad:	e8 81 fd ff ff       	call   433 <write>
 6b2:	0f b6 03             	movzbl (%ebx),%eax
 6b5:	83 c4 10             	add    $0x10,%esp
 6b8:	84 c0                	test   %al,%al
 6ba:	75 e4                	jne    6a0 <printf+0x110>
 6bc:	8b 5d d4             	mov    -0x2c(%ebp),%ebx
 6bf:	31 c9                	xor    %ecx,%ecx
 6c1:	e9 1c ff ff ff       	jmp    5e2 <printf+0x52>
 6c6:	8d b4 26 00 00 00 00 	lea    0x0(%esi,%eiz,1),%esi
 6cd:	8d 76 00             	lea    0x0(%esi),%esi
 6d0:	83 ec 0c             	sub    $0xc,%esp
 6d3:	b9 0a 00 00 00       	mov    $0xa,%ecx
 6d8:	6a 01                	push   $0x1
 6da:	e9 7b ff ff ff       	jmp    65a <printf+0xca>
 6df:	90                   	nop
 6e0:	8b 45 d0             	mov    -0x30(%ebp),%eax
 6e3:	83 ec 04             	sub    $0x4,%esp
 6e6:	8b 00                	mov    (%eax),%eax
 6e8:	6a 01                	push   $0x1
 6ea:	57                   	push   %edi
 6eb:	56                   	push   %esi
 6ec:	88 45 e7             	mov    %al,-0x19(%ebp)
 6ef:	e8 3f fd ff ff       	call   433 <write>
 6f4:	83 45 d0 04          	addl   $0x4,-0x30(%ebp)
 6f8:	83 c4 10             	add    $0x10,%esp
 6fb:	31 c9                	xor    %ecx,%ecx
 6fd:	e9 e0 fe ff ff       	jmp    5e2 <printf+0x52>
 702:	8d b6 00 00 00 00    	lea    0x0(%esi),%esi
 708:	88 55 e7             	mov    %dl,-0x19(%ebp)
 70b:	83 ec 04             	sub    $0x4,%esp
 70e:	e9 2a ff ff ff       	jmp    63d <printf+0xad>
 713:	8d 74 26 00          	lea    0x0(%esi,%eiz,1),%esi
 717:	90                   	nop
 718:	ba 2a 09 00 00       	mov    $0x92a,%edx
 71d:	89 5d d4             	mov    %ebx,-0x2c(%ebp)
 720:	b8 28 00 00 00       	mov    $0x28,%eax
 725:	89 d3                	mov    %edx,%ebx
 727:	e9 74 ff ff ff       	jmp    6a0 <printf+0x110>
 72c:	66 90                	xchg   %ax,%ax
 72e:	66 90                	xchg   %ax,%ax

00000730 <free>:
static Header base;
static Header *freep;

void
free(void *ap)
{
 730:	55                   	push   %ebp
  Header *bp, *p;

  bp = (Header*)ap - 1;
  for(p = freep; !(bp > p && bp < p->s.ptr); p = p->s.ptr)
 731:	a1 40 0c 00 00       	mov    0xc40,%eax
{
 736:	89 e5                	mov    %esp,%ebp
 738:	57                   	push   %edi
 739:	56                   	push   %esi
 73a:	53                   	push   %ebx
 73b:	8b 5d 08             	mov    0x8(%ebp),%ebx
  bp = (Header*)ap - 1;
 73e:	8d 4b f8             	lea    -0x8(%ebx),%ecx
  for(p = freep; !(bp > p && bp < p->s.ptr); p = p->s.ptr)
 741:	8d b4 26 00 00 00 00 	lea    0x0(%esi,%eiz,1),%esi
 748:	89 c2                	mov    %eax,%edx
 74a:	8b 00                	mov    (%eax),%eax
 74c:	39 ca                	cmp    %ecx,%edx
 74e:	73 30                	jae    780 <free+0x50>
 750:	39 c1                	cmp    %eax,%ecx
 752:	72 04                	jb     758 <free+0x28>
    if(p >= p->s.ptr && (bp > p || bp < p->s.ptr))
 754:	39 c2                	cmp    %eax,%edx
 756:	72 f0                	jb     748 <free+0x18>
      break;
  if(bp + bp->s.size == p->s.ptr){
 758:	8b 73 fc             	mov    -0x4(%ebx),%esi
 75b:	8d 3c f1             	lea    (%ecx,%esi,8),%edi
 75e:	39 f8                	cmp    %edi,%eax
 760:	74 30                	je     792 <free+0x62>
    bp->s.size += p->s.ptr->s.size;
    bp->s.ptr = p->s.ptr->s.ptr;
 762:	89 43 f8             	mov    %eax,-0x8(%ebx)
  } else
    bp->s.ptr = p->s.ptr;
  if(p + p->s.size == bp){
 765:	8b 42 04             	mov    0x4(%edx),%eax
 768:	8d 34 c2             	lea    (%edx,%eax,8),%esi
 76b:	39 f1                	cmp    %esi,%ecx
 76d:	74 3a                	je     7a9 <free+0x79>
    p->s.size += bp->s.size;
    p->s.ptr = bp->s.ptr;
 76f:	89 0a                	mov    %ecx,(%edx)
  } else
    p->s.ptr = bp;
  freep = p;
}
 771:	5b                   	pop    %ebx
  freep = p;
 772:	89 15 40 0c 00 00    	mov    %edx,0xc40
}
 778:	5e                   	pop    %esi
 779:	5f                   	pop    %edi
 77a:	5d                   	pop    %ebp
 77b:	c3                   	ret    
 77c:	8d 74 26 00          	lea    0x0(%esi,%eiz,1),%esi
    if(p >= p->s.ptr && (bp > p || bp < p->s.ptr))
 780:	39 c2                	cmp    %eax,%edx
 782:	72 c4                	jb     748 <free+0x18>
 784:	39 c1                	cmp    %eax,%ecx
 786:	73 c0                	jae    748 <free+0x18>
  if(bp + bp->s.size == p->s.ptr){
 788:	8b 73 fc             	mov    -0x4(%ebx),%esi
 78b:	8d 3c f1             	lea    (%ecx,%esi,8),%edi
 78e:	39 f8                	cmp    %edi,%eax
 790:	75 d0                	jne    762 <free+0x32>
    bp->s.size += p->s.ptr->s.size;
 792:	03 70 04             	add    0x4(%eax),%esi
 795:	89 73 fc             	mov    %esi,-0x4(%ebx)
    bp->s.ptr = p->s.ptr->s.ptr;
 798:	8b 02                	mov    (%edx),%eax
 79a:	8b 00                	mov    (%eax),%eax
 79c:	89 43 f8             	mov    %eax,-0x8(%ebx)
  if(p + p->s.size == bp){
 79f:	8b 42 04             	mov    0x4(%edx),%eax
 7a2:	8d 34 c2             	lea    (%edx,%eax,8),%esi
 7a5:	39 f1                	cmp    %esi,%ecx
 7a7:	75 c6                	jne    76f <free+0x3f>
    p->s.size += bp->s.size;
 7a9:	03 43 fc             	add    -0x4(%ebx),%eax
  freep = p;
 7ac:	89 15 40 0c 00 00    	mov    %edx,0xc40
    p->s.size += bp->s.size;
 7b2:	89 42 04             	mov    %eax,0x4(%edx)
    p->s.ptr = bp->s.ptr;
 7b5:	8b 4b f8             	mov    -0x8(%ebx),%ecx
 7b8:	89 0a                	mov    %ecx,(%edx)
}
 7ba:	5b                   	pop    %ebx
 7bb:	5e                   	pop    %esi
 7bc:	5f                   	pop    %edi
 7bd:	5d                   	pop    %ebp
 7be:	c3                   	ret    
 7bf:	90                   	nop

000007c0 <malloc>:
  return freep;
}

void*
malloc(uint nbytes)
{
 7c0:	55                   	push   %ebp
 7c1:	89 e5                	mov    %esp,%ebp
 7c3:	57                   	push   %edi
 7c4:	56                   	push   %esi
 7c5:	53                   	push   %ebx
 7c6:	83 ec 1c             	sub    $0x1c,%esp
  Header *p, *prevp;
  uint nunits;

  nunits = (nbytes + sizeof(Header) - 1)/sizeof(Header) + 1;
 7c9:	8b 45 08             	mov    0x8(%ebp),%eax
  if((prevp = freep) == 0){
 7cc:	8b 3d 40 0c 00 00    	mov    0xc40,%edi
  nunits = (nbytes + sizeof(Header) - 1)/sizeof(Header) + 1;
 7d2:	8d 70 07             	lea    0x7(%eax),%esi
 7d5:	c1 ee 03             	shr    $0x3,%esi
 7d8:	83 c6 01             	add    $0x1,%esi
  if((prevp = freep) == 0){
 7db:	85 ff                	test   %edi,%edi
 7dd:	0f 84 9d 00 00 00    	je     880 <malloc+0xc0>
    base.s.ptr = freep = prevp = &base;
    base.s.size = 0;
  }
  for(p = prevp->s.ptr; ; prevp = p, p = p->s.ptr){
 7e3:	8b 17                	mov    (%edi),%edx
    if(p->s.size >= nunits){
 7e5:	8b 4a 04             	mov    0x4(%edx),%ecx
 7e8:	39 f1                	cmp    %esi,%ecx
 7ea:	73 6a                	jae    856 <malloc+0x96>
 7ec:	bb 00 10 00 00       	mov    $0x1000,%ebx
 7f1:	39 de                	cmp    %ebx,%esi
 7f3:	0f 43 de             	cmovae %esi,%ebx
  p = sbrk(nu * sizeof(Header));
 7f6:	8d 04 dd 00 00 00 00 	lea    0x0(,%ebx,8),%eax
 7fd:	89 45 e4             	mov    %eax,-0x1c(%ebp)
 800:	eb 17                	jmp    819 <malloc+0x59>
 802:	8d b6 00 00 00 00    	lea    0x0(%esi),%esi
  for(p = prevp->s.ptr; ; prevp = p, p = p->s.ptr){
 808:	8b 02                	mov    (%edx),%eax
    if(p->s.size >= nunits){
 80a:	8b 48 04             	mov    0x4(%eax),%ecx
 80d:	39 f1                	cmp    %esi,%ecx
 80f:	73 4f                	jae    860 <malloc+0xa0>
        p->s.size = nunits;
      }
      freep = prevp;
      return (void*)(p + 1);
    }
    if(p == freep)
 811:	8b 3d 40 0c 00 00    	mov    0xc40,%edi
 817:	89 c2                	mov    %eax,%edx
 819:	39 d7                	cmp    %edx,%edi
 81b:	75 eb                	jne    808 <malloc+0x48>
  p = sbrk(nu * sizeof(Header));
 81d:	83 ec 0c             	sub    $0xc,%esp
 820:	ff 75 e4             	push   -0x1c(%ebp)
 823:	e8 73 fc ff ff       	call   49b <sbrk>
  if(p == (char*)-1)
 828:	83 c4 10             	add    $0x10,%esp
 82b:	83 f8 ff             	cmp    $0xffffffff,%eax
 82e:	74 1c                	je     84c <malloc+0x8c>
  hp->s.size = nu;
 830:	89 58 04             	mov    %ebx,0x4(%eax)
  free((void*)(hp + 1));
 833:	83 ec 0c             	sub    $0xc,%esp
 836:	83 c0 08             	add    $0x8,%eax
 839:	50                   	push   %eax
 83a:	e8 f1 fe ff ff       	call   730 <free>
  return freep;
 83f:	8b 15 40 0c 00 00    	mov    0xc40,%edx
      if((p = morecore(nunits)) == 0)
 845:	83 c4 10             	add    $0x10,%esp
 848:	85 d2                	test   %edx,%edx
 84a:	75 bc                	jne    808 <malloc+0x48>
        return 0;
  }
}
 84c:	8d 65 f4             	lea    -0xc(%ebp),%esp
        return 0;
 84f:	31 c0                	xor    %eax,%eax
}
 851:	5b                   	pop    %ebx
 852:	5e                   	pop    %esi
 853:	5f                   	pop    %edi
 854:	5d                   	pop    %ebp
 855:	c3                   	ret    
    if(p->s.size >= nunits){
 856:	89 d0                	mov    %edx,%eax
 858:	89 fa                	mov    %edi,%edx
 85a:	8d b6 00 00 00 00    	lea    0x0(%esi),%esi
      if(p->s.size == nunits)
 860:	39 ce                	cmp    %ecx,%esi
 862:	74 4c                	je     8b0 <malloc+0xf0>
        p->s.size -= nunits;
 864:	29 f1                	sub    %esi,%ecx
 866:	89 48 04             	mov    %ecx,0x4(%eax)
        p += p->s.size;
 869:	8d 04 c8             	lea    (%eax,%ecx,8),%eax
        p->s.size = nunits;
 86c:	89 70 04             	mov    %esi,0x4(%eax)
      freep = prevp;
 86f:	89 15 40 0c 00 00    	mov    %edx,0xc40
}
 875:	8d 65 f4             	lea    -0xc(%ebp),%esp
      return (void*)(p + 1);
 878:	83 c0 08             	add    $0x8,%eax
}
 87b:	5b                   	pop    %ebx
 87c:	5e                   	pop    %esi
 87d:	5f                   	pop    %edi
 87e:	5d                   	pop    %ebp
 87f:	c3                   	ret    
    base.s.ptr = freep = prevp = &base;
 880:	c7 05 40 0c 00 00 44 	movl   $0xc44,0xc40
 887:	0c 00 00 
    base.s.size = 0;
 88a:	bf 44 0c 00 00       	mov    $0xc44,%edi
    base.s.ptr = freep = prevp = &base;
 88f:	c7 05 44 0c 00 00 44 	movl   $0xc44,0xc44
 896:	0c 00 00 
  for(p = prevp->s.ptr; ; prevp = p, p = p->s.ptr){
 899:	89 fa                	mov    %edi,%edx
    base.s.size = 0;
 89b:	c7 05 48 0c 00 00 00 	movl   $0x0,0xc48
 8a2:	00 00 00 
    if(p->s.size >= nunits){
 8a5:	e9 42 ff ff ff       	jmp    7ec <malloc+0x2c>
 8aa:	8d b6 00 00 00 00    	lea    0x0(%esi),%esi
        prevp->s.ptr = p->s.ptr;
 8b0:	8b 08                	mov    (%eax),%ecx
 8b2:	89 0a                	mov    %ecx,(%edx)
 8b4:	eb b9                	jmp    86f <malloc+0xaf>
